

Microchip MPLAB XC8 Assembler V2.35 build 20211206165544 
                                                                                               Thu Jun 01 17:22:26 2023

Microchip MPLAB XC8 C Compiler v2.35 (Free license) build 20211206165544 Og1 
     1                           	processor	16F887
     2                           	pagewidth 120
     3                           	opt	flic
     4                           	psect	idataBANK1,global,class=CODE,delta=2,noexec
     5                           	psect	strings,global,class=STRING,delta=2,noexec
     6                           	psect	cinit,global,class=CODE,merge=1,delta=2
     7                           	psect	bssCOMMON,global,class=COMMON,space=1,delta=1,noexec
     8                           	psect	bssBANK0,global,class=BANK0,space=1,delta=1,noexec
     9                           	psect	bssBANK1,global,class=BANK1,space=1,delta=1,noexec
    10                           	psect	dataBANK1,global,class=BANK1,space=1,delta=1,noexec
    11                           	psect	clrtext,global,class=CODE,delta=2
    12                           	psect	cstackBANK1,global,class=BANK1,space=1,delta=1,noexec
    13                           	psect	cstackCOMMON,global,class=COMMON,space=1,delta=1,noexec
    14                           	psect	cstackBANK0,global,class=BANK0,space=1,delta=1,noexec
    15                           	psect	maintext,global,class=CODE,split=1,delta=2
    16                           	psect	text1,local,class=CODE,merge=1,delta=2,group=1
    17                           	psect	text2,local,class=CODE,merge=1,delta=2,group=2
    18                           	psect	text3,local,class=CODE,merge=1,delta=2,group=2
    19                           	psect	text4,local,class=CODE,merge=1,delta=2
    20                           	psect	text5,local,class=CODE,merge=1,delta=2
    21                           	psect	text6,local,class=CODE,merge=1,delta=2
    22                           	psect	text7,local,class=CODE,merge=1,delta=2
    23                           	psect	text8,local,class=CODE,merge=1,delta=2
    24                           	psect	text9,local,class=CODE,merge=1,delta=2
    25                           	psect	text10,local,class=CODE,merge=1,delta=2
    26                           	psect	text11,local,class=CODE,merge=1,delta=2
    27                           	psect	text12,local,class=CODE,merge=1,delta=2,group=2
    28                           	psect	text13,local,class=CODE,merge=1,delta=2,group=2
    29                           	psect	text14,local,class=CODE,merge=1,delta=2
    30                           	psect	text15,local,class=CODE,merge=1,delta=2
    31                           	psect	text16,local,class=CODE,merge=1,delta=2
    32                           	psect	text17,local,class=CODE,merge=1,delta=2
    33                           	psect	intentry,global,class=CODE,delta=2
    34                           	psect	text18,local,class=CODE,merge=1,delta=2
    35                           	psect	text19,local,class=CODE,merge=1,delta=2
    36                           	psect	text20,local,class=CODE,merge=1,delta=2
    37                           	psect	text21,local,class=CODE,merge=1,delta=2
    38                           	psect	text22,local,class=CODE,merge=1,delta=2
    39                           	psect	idloc,global,abs,ovrld,class=IDLOC,space=5,delta=2,noexec
    40                           	psect	config,global,abs,ovrld,class=CONFIG,space=4,delta=2,noexec
    41                           	dabs	1,0x7E,2
    42  0000                     
    43                           ; Version 2.40
    44                           ; Generated 17/11/2021 GMT
    45                           ; 
    46                           ; Copyright © 2021, Microchip Technology Inc. and its subsidiaries ("Microchip")
    47                           ; All rights reserved.
    48                           ; 
    49                           ; This software is developed by Microchip Technology Inc. and its subsidiaries ("Microch
      +                          ip").
    50                           ; 
    51                           ; Redistribution and use in source and binary forms, with or without modification, are
    52                           ; permitted provided that the following conditions are met:
    53                           ; 
    54                           ;     1. Redistributions of source code must retain the above copyright notice, this lis
      +                          t of
    55                           ;        conditions and the following disclaimer.
    56                           ; 
    57                           ;     2. Redistributions in binary form must reproduce the above copyright notice, this 
      +                          list
    58                           ;        of conditions and the following disclaimer in the documentation and/or other
    59                           ;        materials provided with the distribution. Publication is not required when
    60                           ;        this file is used in an embedded application.
    61                           ; 
    62                           ;     3. Microchip's name may not be used to endorse or promote products derived from th
      +                          is
    63                           ;        software without specific prior written permission.
    64                           ; 
    65                           ; THIS SOFTWARE IS PROVIDED BY MICROCHIP "AS IS" AND ANY EXPRESS OR IMPLIED WARRANTIES,
    66                           ; INCLUDING, BUT NOT LIMITED TO, THE IMPLIED WARRANTIES OF MERCHANTABILITY AND FITNESS F
      +                          OR
    67                           ; PURPOSE ARE DISCLAIMED.  IN NO EVENT SHALL MICROCHIP BE LIABLE FOR ANY DIRECT, INDIREC
      +                          T,
    68                           ; INCIDENTAL, SPECIAL, EXEMPLARY, OR CONSEQUENTIAL DAMAGES (INCLUDING BUT NOT LIMITED TO
    69                           ; PROCUREMENT OF SUBSTITUTE GOODS OR SERVICES; LOSS OF USE, DATA OR PROFITS; OR BUSINESS
    70                           ; INTERRUPTION) HOWSOEVER CAUSED AND ON ANY THEORY OF LIABILITY, WHETHER IN CONTRACT, ST
      +                          RICT
    71                           ; LIABILITY, OR TORT (INCLUDING NEGLIGENCE OR OTHERWISE) ARISING IN ANY WAY OUT OF THE U
      +                          SE OF
    72                           ; THIS SOFTWARE, EVEN IF ADVISED OF THE POSSIBILITY OF SUCH DAMAGE.
    73                           ; 
    74                           ; 
    75                           ; Code-generator required, PIC16F887 Definitions
    76                           ; 
    77                           ; SFR Addresses
    78  0000                     	;# 
    79  0001                     	;# 
    80  0002                     	;# 
    81  0003                     	;# 
    82  0004                     	;# 
    83  0005                     	;# 
    84  0006                     	;# 
    85  0007                     	;# 
    86  0008                     	;# 
    87  0009                     	;# 
    88  000A                     	;# 
    89  000B                     	;# 
    90  000C                     	;# 
    91  000D                     	;# 
    92  000E                     	;# 
    93  000E                     	;# 
    94  000F                     	;# 
    95  0010                     	;# 
    96  0011                     	;# 
    97  0012                     	;# 
    98  0013                     	;# 
    99  0014                     	;# 
   100  0015                     	;# 
   101  0015                     	;# 
   102  0016                     	;# 
   103  0017                     	;# 
   104  0018                     	;# 
   105  0019                     	;# 
   106  001A                     	;# 
   107  001B                     	;# 
   108  001B                     	;# 
   109  001C                     	;# 
   110  001D                     	;# 
   111  001E                     	;# 
   112  001F                     	;# 
   113  0081                     	;# 
   114  0085                     	;# 
   115  0086                     	;# 
   116  0087                     	;# 
   117  0088                     	;# 
   118  0089                     	;# 
   119  008C                     	;# 
   120  008D                     	;# 
   121  008E                     	;# 
   122  008F                     	;# 
   123  0090                     	;# 
   124  0091                     	;# 
   125  0092                     	;# 
   126  0093                     	;# 
   127  0093                     	;# 
   128  0093                     	;# 
   129  0094                     	;# 
   130  0095                     	;# 
   131  0096                     	;# 
   132  0097                     	;# 
   133  0098                     	;# 
   134  0099                     	;# 
   135  009A                     	;# 
   136  009B                     	;# 
   137  009C                     	;# 
   138  009D                     	;# 
   139  009E                     	;# 
   140  009F                     	;# 
   141  0105                     	;# 
   142  0107                     	;# 
   143  0108                     	;# 
   144  0109                     	;# 
   145  010C                     	;# 
   146  010C                     	;# 
   147  010D                     	;# 
   148  010E                     	;# 
   149  010F                     	;# 
   150  0185                     	;# 
   151  0187                     	;# 
   152  0188                     	;# 
   153  0189                     	;# 
   154  018C                     	;# 
   155  018D                     	;# 
   156  0000                     	;# 
   157  0001                     	;# 
   158  0002                     	;# 
   159  0003                     	;# 
   160  0004                     	;# 
   161  0005                     	;# 
   162  0006                     	;# 
   163  0007                     	;# 
   164  0008                     	;# 
   165  0009                     	;# 
   166  000A                     	;# 
   167  000B                     	;# 
   168  000C                     	;# 
   169  000D                     	;# 
   170  000E                     	;# 
   171  000E                     	;# 
   172  000F                     	;# 
   173  0010                     	;# 
   174  0011                     	;# 
   175  0012                     	;# 
   176  0013                     	;# 
   177  0014                     	;# 
   178  0015                     	;# 
   179  0015                     	;# 
   180  0016                     	;# 
   181  0017                     	;# 
   182  0018                     	;# 
   183  0019                     	;# 
   184  001A                     	;# 
   185  001B                     	;# 
   186  001B                     	;# 
   187  001C                     	;# 
   188  001D                     	;# 
   189  001E                     	;# 
   190  001F                     	;# 
   191  0081                     	;# 
   192  0085                     	;# 
   193  0086                     	;# 
   194  0087                     	;# 
   195  0088                     	;# 
   196  0089                     	;# 
   197  008C                     	;# 
   198  008D                     	;# 
   199  008E                     	;# 
   200  008F                     	;# 
   201  0090                     	;# 
   202  0091                     	;# 
   203  0092                     	;# 
   204  0093                     	;# 
   205  0093                     	;# 
   206  0093                     	;# 
   207  0094                     	;# 
   208  0095                     	;# 
   209  0096                     	;# 
   210  0097                     	;# 
   211  0098                     	;# 
   212  0099                     	;# 
   213  009A                     	;# 
   214  009B                     	;# 
   215  009C                     	;# 
   216  009D                     	;# 
   217  009E                     	;# 
   218  009F                     	;# 
   219  0105                     	;# 
   220  0107                     	;# 
   221  0108                     	;# 
   222  0109                     	;# 
   223  010C                     	;# 
   224  010C                     	;# 
   225  010D                     	;# 
   226  010E                     	;# 
   227  010F                     	;# 
   228  0185                     	;# 
   229  0187                     	;# 
   230  0188                     	;# 
   231  0189                     	;# 
   232  018C                     	;# 
   233  018D                     	;# 
   234                           
   235                           	psect	idataBANK1
   236  03FD                     __pidataBANK1:
   237                           
   238                           ;initializer for _pwm_period
   239  03FD  34FF               	retlw	255
   240  03FE  3400               	retlw	0
   241                           
   242                           	psect	strings
   243  0400                     __pstrings:
   244  0400                     stringtab:
   245  0400                     __stringtab:
   246                           
   247                           ;	String table - string pointers are 1 byte each
   248  0400  1BFF               	btfsc	btemp+1,7
   249  0401  2C0A               	ljmp	stringcode
   250  0402  1383               	bcf	3,7
   251  0403  187F               	btfsc	btemp+1,0
   252  0404  1783               	bsf	3,7
   253  0405  0800               	movf	0,w
   254  0406  0A84               	incf	4,f
   255  0407  1903               	skipnz
   256  0408  0AFF               	incf	btemp+1,f
   257  0409  0008               	return
   258  040A                     stringcode:
   259  040A                     stringdir:
   260  040A  3004               	movlw	high stringdir
   261  040B  008A               	movwf	10
   262  040C  0804               	movf	4,w
   263  040D  0A84               	incf	4,f
   264  040E  0782               	addwf	2,f
   265  040F                     __stringbase:
   266  040F  3400               	retlw	0
   267  0410                     __end_of__stringtab:
   268  0410                     _dpowers:
   269  0410  3401               	retlw	1
   270  0411  3400               	retlw	0
   271  0412  340A               	retlw	10
   272  0413  3400               	retlw	0
   273  0414  3464               	retlw	100
   274  0415  3400               	retlw	0
   275  0416  34E8               	retlw	232
   276  0417  3403               	retlw	3
   277  0418  3410               	retlw	16
   278  0419  3427               	retlw	39
   279  041A                     __end_of_dpowers:
   280  0019                     _TXREG	set	25
   281  0018                     _RCSTAbits	set	24
   282  0012                     _T2CONbits	set	18
   283  001D                     _CCP2CONbits	set	29
   284  0017                     _CCP1CONbits	set	23
   285  0006                     _PORTB	set	6
   286  0008                     _PORTD	set	8
   287  0007                     _PORTC	set	7
   288  0005                     _PORTA	set	5
   289  001B                     _CCPR2L	set	27
   290  0015                     _CCPR1L	set	21
   291  001F                     _ADCON0bits	set	31
   292  0006                     _PORTBbits	set	6
   293  001A                     _RCREG	set	26
   294  000C                     _PIR1bits	set	12
   295  0001                     _TMR0	set	1
   296  0008                     _PORTDbits	set	8
   297  0007                     _PORTCbits	set	7
   298  000B                     _INTCONbits	set	11
   299  001E                     _ADRESH	set	30
   300  0064                     _TXIF	set	100
   301  0066                     _ADIF	set	102
   302  0032                     _RB2	set	50
   303  0031                     _RB1	set	49
   304  0058                     _RBIF	set	88
   305  005A                     _T0IF	set	90
   306  008C                     _PIE1bits	set	140
   307  009A                     _SPBRGH	set	154
   308  0099                     _SPBRG	set	153
   309  0098                     _TXSTAbits	set	152
   310  0092                     _PR2	set	146
   311  0087                     _TRISCbits	set	135
   312  0095                     _WPUBbits	set	149
   313  0096                     _IOCBbits	set	150
   314  0081                     _OPTION_REGbits	set	129
   315  008F                     _OSCCONbits	set	143
   316  0086                     _TRISB	set	134
   317  0088                     _TRISD	set	136
   318  0087                     _TRISC	set	135
   319  0085                     _TRISA	set	133
   320  009E                     _ADRESL	set	158
   321  009F                     _ADCON1bits	set	159
   322  010C                     _EEDATA	set	268
   323  010D                     _EEADR	set	269
   324  0187                     _BAUDCTLbits	set	391
   325  0189                     _ANSELH	set	393
   326  0188                     _ANSEL	set	392
   327  018D                     _EECON2	set	397
   328  018C                     _EECON1bits	set	396
   329  041A                     STR_1:
   330  041A  3431               	retlw	49	;'1'
   331  041B  342E               	retlw	46	;'.'
   332  041C  3420               	retlw	32	;' '
   333  041D  344C               	retlw	76	;'L'
   334  041E  3465               	retlw	101	;'e'
   335  041F  3465               	retlw	101	;'e'
   336  0420  3472               	retlw	114	;'r'
   337  0421  3420               	retlw	32	;' '
   338  0422  3470               	retlw	112	;'p'
   339  0423  346F               	retlw	111	;'o'
   340  0424  3474               	retlw	116	;'t'
   341  0425  3465               	retlw	101	;'e'
   342  0426  346E               	retlw	110	;'n'
   343  0427  3463               	retlw	99	;'c'
   344  0428  3469               	retlw	105	;'i'
   345  0429  346F               	retlw	111	;'o'
   346  042A  346D               	retlw	109	;'m'
   347  042B  3465               	retlw	101	;'e'
   348  042C  3474               	retlw	116	;'t'
   349  042D  3472               	retlw	114	;'r'
   350  042E  346F               	retlw	111	;'o'
   351  042F  3473               	retlw	115	;'s'
   352  0430  3420               	retlw	32	;' '
   353  0431  3472               	retlw	114	;'r'
   354  0432  3467               	retlw	103	;'g'
   355  0433  3462               	retlw	98	;'b'
   356  0434  3420               	retlw	32	;' '
   357  0435  340D               	retlw	13
   358  0436  340A               	retlw	10
   359  0437  3432               	retlw	50	;'2'
   360  0438  342E               	retlw	46	;'.'
   361  0439  3420               	retlw	32	;' '
   362  043A  3450               	retlw	80	;'P'
   363  043B  3461               	retlw	97	;'a'
   364  043C  3472               	retlw	114	;'r'
   365  043D  3470               	retlw	112	;'p'
   366  043E  3461               	retlw	97	;'a'
   367  043F  3464               	retlw	100	;'d'
   368  0440  3465               	retlw	101	;'e'
   369  0441  3461               	retlw	97	;'a'
   370  0442  3472               	retlw	114	;'r'
   371  0443  3420               	retlw	32	;' '
   372  0444  3475               	retlw	117	;'u'
   373  0445  346E               	retlw	110	;'n'
   374  0446  3461               	retlw	97	;'a'
   375  0447  3420               	retlw	32	;' '
   376  0448  3476               	retlw	118	;'v'
   377  0449  3465               	retlw	101	;'e'
   378  044A  347A               	retlw	122	;'z'
   379  044B  340D               	retlw	13
   380  044C  340A               	retlw	10
   381  044D  3433               	retlw	51	;'3'
   382  044E  342E               	retlw	46	;'.'
   383  044F  3420               	retlw	32	;' '
   384  0450  3450               	retlw	80	;'P'
   385  0451  3461               	retlw	97	;'a'
   386  0452  3472               	retlw	114	;'r'
   387  0453  3470               	retlw	112	;'p'
   388  0454  3461               	retlw	97	;'a'
   389  0455  3464               	retlw	100	;'d'
   390  0456  3465               	retlw	101	;'e'
   391  0457  3461               	retlw	97	;'a'
   392  0458  3472               	retlw	114	;'r'
   393  0459  3420               	retlw	32	;' '
   394  045A  3464               	retlw	100	;'d'
   395  045B  346F               	retlw	111	;'o'
   396  045C  3473               	retlw	115	;'s'
   397  045D  3420               	retlw	32	;' '
   398  045E  3476               	retlw	118	;'v'
   399  045F  3465               	retlw	101	;'e'
   400  0460  3463               	retlw	99	;'c'
   401  0461  3465               	retlw	101	;'e'
   402  0462  3473               	retlw	115	;'s'
   403  0463  340D               	retlw	13
   404  0464  340A               	retlw	10
   405  0465  3400               	retlw	0
   406  0466                     STR_5:
   407  0466  3456               	retlw	86	;'V'
   408  0467  3461               	retlw	97	;'a'
   409  0468  346C               	retlw	108	;'l'
   410  0469  346F               	retlw	111	;'o'
   411  046A  3472               	retlw	114	;'r'
   412  046B  3420               	retlw	32	;' '
   413  046C  3464               	retlw	100	;'d'
   414  046D  3465               	retlw	101	;'e'
   415  046E  346C               	retlw	108	;'l'
   416  046F  3420               	retlw	32	;' '
   417  0470  3470               	retlw	112	;'p'
   418  0471  346F               	retlw	111	;'o'
   419  0472  3474               	retlw	116	;'t'
   420  0473  3465               	retlw	101	;'e'
   421  0474  346E               	retlw	110	;'n'
   422  0475  3463               	retlw	99	;'c'
   423  0476  3469               	retlw	105	;'i'
   424  0477  346F               	retlw	111	;'o'
   425  0478  346D               	retlw	109	;'m'
   426  0479  3465               	retlw	101	;'e'
   427  047A  3474               	retlw	116	;'t'
   428  047B  3472               	retlw	114	;'r'
   429  047C  346F               	retlw	111	;'o'
   430  047D  3420               	retlw	32	;' '
   431  047E  3476               	retlw	118	;'v'
   432  047F  3465               	retlw	101	;'e'
   433  0480  3472               	retlw	114	;'r'
   434  0481  3464               	retlw	100	;'d'
   435  0482  3465               	retlw	101	;'e'
   436  0483  343A               	retlw	58	;':'
   437  0484  3420               	retlw	32	;' '
   438  0485  3400               	retlw	0
   439  0486                     STR_7:
   440  0486  3456               	retlw	86	;'V'
   441  0487  3461               	retlw	97	;'a'
   442  0488  346C               	retlw	108	;'l'
   443  0489  346F               	retlw	111	;'o'
   444  048A  3472               	retlw	114	;'r'
   445  048B  3420               	retlw	32	;' '
   446  048C  3464               	retlw	100	;'d'
   447  048D  3465               	retlw	101	;'e'
   448  048E  346C               	retlw	108	;'l'
   449  048F  3420               	retlw	32	;' '
   450  0490  3470               	retlw	112	;'p'
   451  0491  346F               	retlw	111	;'o'
   452  0492  3474               	retlw	116	;'t'
   453  0493  3465               	retlw	101	;'e'
   454  0494  346E               	retlw	110	;'n'
   455  0495  3463               	retlw	99	;'c'
   456  0496  3469               	retlw	105	;'i'
   457  0497  346F               	retlw	111	;'o'
   458  0498  346D               	retlw	109	;'m'
   459  0499  3465               	retlw	101	;'e'
   460  049A  3474               	retlw	116	;'t'
   461  049B  3472               	retlw	114	;'r'
   462  049C  346F               	retlw	111	;'o'
   463  049D  3420               	retlw	32	;' '
   464  049E  3461               	retlw	97	;'a'
   465  049F  347A               	retlw	122	;'z'
   466  04A0  3475               	retlw	117	;'u'
   467  04A1  346C               	retlw	108	;'l'
   468  04A2  343A               	retlw	58	;':'
   469  04A3  3420               	retlw	32	;' '
   470  04A4  3400               	retlw	0
   471  04A5                     STR_3:
   472  04A5  3456               	retlw	86	;'V'
   473  04A6  3461               	retlw	97	;'a'
   474  04A7  346C               	retlw	108	;'l'
   475  04A8  346F               	retlw	111	;'o'
   476  04A9  3472               	retlw	114	;'r'
   477  04AA  3420               	retlw	32	;' '
   478  04AB  3464               	retlw	100	;'d'
   479  04AC  3465               	retlw	101	;'e'
   480  04AD  346C               	retlw	108	;'l'
   481  04AE  3420               	retlw	32	;' '
   482  04AF  3470               	retlw	112	;'p'
   483  04B0  346F               	retlw	111	;'o'
   484  04B1  3474               	retlw	116	;'t'
   485  04B2  3465               	retlw	101	;'e'
   486  04B3  346E               	retlw	110	;'n'
   487  04B4  3463               	retlw	99	;'c'
   488  04B5  3469               	retlw	105	;'i'
   489  04B6  346F               	retlw	111	;'o'
   490  04B7  346D               	retlw	109	;'m'
   491  04B8  3465               	retlw	101	;'e'
   492  04B9  3474               	retlw	116	;'t'
   493  04BA  3472               	retlw	114	;'r'
   494  04BB  346F               	retlw	111	;'o'
   495  04BC  3420               	retlw	32	;' '
   496  04BD  3472               	retlw	114	;'r'
   497  04BE  346F               	retlw	111	;'o'
   498  04BF  346A               	retlw	106	;'j'
   499  04C0  346F               	retlw	111	;'o'
   500  04C1  343A               	retlw	58	;':'
   501  04C2  3420               	retlw	32	;' '
   502  04C3  3400               	retlw	0
   503  04C4                     STR_9:
   504  04C4  3448               	retlw	72	;'H'
   505  04C5  3465               	retlw	101	;'e'
   506  04C6  3420               	retlw	32	;' '
   507  04C7  3470               	retlw	112	;'p'
   508  04C8  3461               	retlw	97	;'a'
   509  04C9  3472               	retlw	114	;'r'
   510  04CA  3470               	retlw	112	;'p'
   511  04CB  3461               	retlw	97	;'a'
   512  04CC  3464               	retlw	100	;'d'
   513  04CD  3465               	retlw	101	;'e'
   514  04CE  3461               	retlw	97	;'a'
   515  04CF  3464               	retlw	100	;'d'
   516  04D0  346F               	retlw	111	;'o'
   517  04D1  3420               	retlw	32	;' '
   518  04D2  3464               	retlw	100	;'d'
   519  04D3  346F               	retlw	111	;'o'
   520  04D4  3473               	retlw	115	;'s'
   521  04D5  3420               	retlw	32	;' '
   522  04D6  3476               	retlw	118	;'v'
   523  04D7  3465               	retlw	101	;'e'
   524  04D8  3463               	retlw	99	;'c'
   525  04D9  3465               	retlw	101	;'e'
   526  04DA  3473               	retlw	115	;'s'
   527  04DB  3400               	retlw	0
   528  04DC                     STR_8:
   529  04DC  3448               	retlw	72	;'H'
   530  04DD  3465               	retlw	101	;'e'
   531  04DE  3420               	retlw	32	;' '
   532  04DF  3470               	retlw	112	;'p'
   533  04E0  3461               	retlw	97	;'a'
   534  04E1  3472               	retlw	114	;'r'
   535  04E2  3470               	retlw	112	;'p'
   536  04E3  3461               	retlw	97	;'a'
   537  04E4  3464               	retlw	100	;'d'
   538  04E5  3465               	retlw	101	;'e'
   539  04E6  3461               	retlw	97	;'a'
   540  04E7  3464               	retlw	100	;'d'
   541  04E8  346F               	retlw	111	;'o'
   542  04E9  3420               	retlw	32	;' '
   543  04EA  3475               	retlw	117	;'u'
   544  04EB  346E               	retlw	110	;'n'
   545  04EC  3461               	retlw	97	;'a'
   546  04ED  3420               	retlw	32	;' '
   547  04EE  3476               	retlw	118	;'v'
   548  04EF  3465               	retlw	101	;'e'
   549  04F0  347A               	retlw	122	;'z'
   550  04F1  3400               	retlw	0
   551  04F2                     STR_2:
   552  04F2  3425               	retlw	37	;'%'
   553  04F3  3464               	retlw	100	;'d'
   554  04F4  3400               	retlw	0
   555  04F2                     
   556                           	psect	cinit
   557  0013                     start_initialization:	
   558                           ; #config settings
   559                           
   560  0013                     __initialization:
   561                           
   562                           ; Initialize objects allocated to BANK1
   563  0013  1683               	bsf	3,5	;RP0=1, select bank1
   564  0014  1303               	bcf	3,6	;RP1=0, select bank1
   565  0015  120A  118A  23FD  120A  118A  	fcall	__pidataBANK1	;fetch initializer
   566  001A  00B4               	movwf	__pdataBANK1& (0+127)
   567  001B  120A  118A  23FE  120A  118A  	fcall	__pidataBANK1+1	;fetch initializer
   568  0020  00B5               	movwf	(__pdataBANK1+1)& (0+127)
   569                           
   570                           ; Clear objects allocated to BANK1
   571  0021  1383               	bcf	3,7	;select IRP bank0
   572  0022  30AC               	movlw	low __pbssBANK1
   573  0023  0084               	movwf	4
   574  0024  30B4               	movlw	low (__pbssBANK1+8)
   575  0025  120A  158A  26DF  120A  118A  	fcall	clear_ram0
   576                           
   577                           ; Clear objects allocated to BANK0
   578  002A  3049               	movlw	low __pbssBANK0
   579  002B  0084               	movwf	4
   580  002C  3064               	movlw	low (__pbssBANK0+27)
   581  002D  120A  158A  26DF  120A  118A  	fcall	clear_ram0
   582                           
   583                           ; Clear objects allocated to COMMON
   584  0032  01FD               	clrf	__pbssCOMMON& (0+127)
   585  0033                     end_of_initialization:	
   586                           ;End of C runtime variable initialization code
   587                           
   588  0033                     __end_of__initialization:
   589  0033  0183               	clrf	3
   590  0034  120A  118A  2837   	ljmp	_main	;jump to C main() function
   591                           
   592                           	psect	bssCOMMON
   593  007D                     __pbssCOMMON:
   594  007D                     _valASCII:
   595  007D                     	ds	1
   596                           
   597                           	psect	bssBANK0
   598  0049                     __pbssBANK0:
   599  0049                     _valor_adc:
   600  0049                     	ds	2
   601  004B                     _duty_cycleP:
   602  004B                     	ds	2
   603  004D                     _duty_cycle3:
   604  004D                     	ds	2
   605  004F                     _duty_cycle2:
   606  004F                     	ds	2
   607  0051                     _duty_cycle1:
   608  0051                     	ds	2
   609  0053                     _state_eeprom:
   610  0053                     	ds	2
   611  0055                     _POT_AZUL:
   612  0055                     	ds	2
   613  0057                     _POT_VERDE:
   614  0057                     	ds	2
   615  0059                     _POT_ROJO:
   616  0059                     	ds	2
   617  005B                     _opcionSeleccionada:
   618  005B                     	ds	1
   619  005C                     _menuMostrado:
   620  005C                     	ds	1
   621  005D                     _carac:
   622  005D                     	ds	1
   623  005E                     _Bandera:
   624  005E                     	ds	1
   625  005F                     _pwm_countT:
   626  005F                     	ds	1
   627  0060                     _pwm_countP:
   628  0060                     	ds	1
   629  0061                     _pwm_count3:
   630  0061                     	ds	1
   631  0062                     _pwm_count2:
   632  0062                     	ds	1
   633  0063                     _pwm_count1:
   634  0063                     	ds	1
   635                           
   636                           	psect	bssBANK1
   637  00AC                     __pbssBANK1:
   638  00AC                     _adcValue:
   639  00AC                     	ds	2
   640  00AE                     _potValue:
   641  00AE                     	ds	2
   642  00B0                     _duty_cycleT:
   643  00B0                     	ds	2
   644  00B2                     _colores_mostrar:
   645  00B2                     	ds	2
   646                           
   647                           	psect	dataBANK1
   648  00B4                     __pdataBANK1:
   649  00B4                     _pwm_period:
   650  00B4                     	ds	2
   651                           
   652                           	psect	clrtext
   653  0EDF                     clear_ram0:	
   654                           ;	Called with FSR containing the base address, and
   655                           ;	W with the last address+1
   656                           
   657  0EDF  0064               	clrwdt	;clear the watchdog before getting into this loop
   658  0EE0                     clrloop0:
   659  0EE0  0180               	clrf	0	;clear RAM location pointed to by FSR
   660  0EE1  0A84               	incf	4,f	;increment pointer
   661  0EE2  0604               	xorwf	4,w	;XOR with final address
   662  0EE3  1903               	btfsc	3,2	;have we reached the end yet?
   663  0EE4  3400               	retlw	0	;all done for this memory range, return
   664  0EE5  0604               	xorwf	4,w	;XOR again to restore value
   665  0EE6  2EE0               	goto	clrloop0	;do the next byte
   666                           
   667                           	psect	cstackBANK1
   668  00A0                     __pcstackBANK1:
   669  00A0                     main@valorrojoStr:
   670                           
   671                           ; 4 bytes @ 0x0
   672  00A0                     	ds	4
   673  00A4                     main@valorverdeStr:
   674                           
   675                           ; 4 bytes @ 0x4
   676  00A4                     	ds	4
   677  00A8                     main@valorazulStr:
   678                           
   679                           ; 4 bytes @ 0x8
   680  00A8                     	ds	4
   681                           
   682                           	psect	cstackCOMMON
   683  0070                     __pcstackCOMMON:
   684  0070                     ?_parpadeo:
   685  0070                     ?_setup:	
   686                           ; 1 bytes @ 0x0
   687                           
   688  0070                     ?_setupADC:	
   689                           ; 1 bytes @ 0x0
   690                           
   691  0070                     ?_setupTMR0:	
   692                           ; 1 bytes @ 0x0
   693                           
   694  0070                     ?_setupTMR2:	
   695                           ; 1 bytes @ 0x0
   696                           
   697  0070                     ?_setupPWM:	
   698                           ; 1 bytes @ 0x0
   699                           
   700  0070                     ?_setup_UART:	
   701                           ; 1 bytes @ 0x0
   702                           
   703  0070                     ?_enter:	
   704                           ; 1 bytes @ 0x0
   705                           
   706  0070                     ?_saveToEEPROM:	
   707                           ; 1 bytes @ 0x0
   708                           
   709  0070                     ??_saveToEEPROM:	
   710                           ; 1 bytes @ 0x0
   711                           
   712  0070                     ?_readToEEPROM:	
   713                           ; 1 bytes @ 0x0
   714                           
   715  0070                     ??_readToEEPROM:	
   716                           ; 1 bytes @ 0x0
   717                           
   718  0070                     ?_isr:	
   719                           ; 1 bytes @ 0x0
   720                           
   721  0070                     ?_main:	
   722                           ; 1 bytes @ 0x0
   723                           
   724  0070                     ?_enviar_caracter:	
   725                           ; 1 bytes @ 0x0
   726                           
   727  0070                     ?i1_parpadeo:	
   728                           ; 1 bytes @ 0x0
   729                           
   730  0070                     ?i1___wmul:	
   731                           ; 1 bytes @ 0x0
   732                           
   733  0070                     i1___wmul@multiplier:	
   734                           ; 2 bytes @ 0x0
   735                           
   736                           
   737                           ; 2 bytes @ 0x0
   738  0070                     	ds	2
   739  0072                     saveToEEPROM@data:
   740  0072                     i1___wmul@multiplicand:	
   741                           ; 1 bytes @ 0x2
   742                           
   743                           
   744                           ; 2 bytes @ 0x2
   745  0072                     	ds	2
   746  0074                     ??i1___wmul:
   747  0074                     i1___wmul@product:	
   748                           ; 1 bytes @ 0x4
   749                           
   750                           
   751                           ; 2 bytes @ 0x4
   752  0074                     	ds	2
   753  0076                     ?i1___awdiv:
   754  0076                     i1___awdiv@divisor:	
   755                           ; 2 bytes @ 0x6
   756                           
   757                           
   758                           ; 2 bytes @ 0x6
   759  0076                     	ds	2
   760  0078                     i1___awdiv@dividend:
   761                           
   762                           ; 2 bytes @ 0x8
   763  0078                     	ds	2
   764  007A                     ??i1___awdiv:
   765                           
   766                           ; 1 bytes @ 0xA
   767  007A                     	ds	1
   768  007B                     ??i1_parpadeo:
   769                           
   770                           ; 1 bytes @ 0xB
   771  007B                     	ds	2
   772                           
   773                           	psect	cstackBANK0
   774  0020                     __pcstackBANK0:
   775  0020                     i1___awdiv@counter:
   776                           
   777                           ; 1 bytes @ 0x0
   778  0020                     	ds	1
   779  0021                     i1___awdiv@sign:
   780                           
   781                           ; 1 bytes @ 0x1
   782  0021                     	ds	1
   783  0022                     i1___awdiv@quotient:
   784                           
   785                           ; 2 bytes @ 0x2
   786  0022                     	ds	2
   787  0024                     i1parpadeo@i:
   788                           
   789                           ; 2 bytes @ 0x4
   790  0024                     	ds	2
   791  0026                     ??_isr:
   792                           
   793                           ; 1 bytes @ 0x6
   794  0026                     	ds	6
   795  002C                     ??_setup:
   796  002C                     ??_setupADC:	
   797                           ; 1 bytes @ 0xC
   798                           
   799  002C                     ??_setupTMR0:	
   800                           ; 1 bytes @ 0xC
   801                           
   802  002C                     ??_setupTMR2:	
   803                           ; 1 bytes @ 0xC
   804                           
   805  002C                     ??_setupPWM:	
   806                           ; 1 bytes @ 0xC
   807                           
   808  002C                     ??_setup_UART:	
   809                           ; 1 bytes @ 0xC
   810                           
   811  002C                     ??_enviar_caracter:	
   812                           ; 1 bytes @ 0xC
   813                           
   814  002C                     ?___wmul:	
   815                           ; 1 bytes @ 0xC
   816                           
   817  002C                     ?___lwdiv:	
   818                           ; 2 bytes @ 0xC
   819                           
   820  002C                     enviar_caracter@tecla:	
   821                           ; 2 bytes @ 0xC
   822                           
   823  002C                     ___wmul@multiplier:	
   824                           ; 1 bytes @ 0xC
   825                           
   826  002C                     ___lwdiv@divisor:	
   827                           ; 2 bytes @ 0xC
   828                           
   829                           
   830                           ; 2 bytes @ 0xC
   831  002C                     	ds	1
   832  002D                     ?_cadena:
   833  002D                     ??_enter:	
   834                           ; 1 bytes @ 0xD
   835                           
   836  002D                     cadena@txt:	
   837                           ; 1 bytes @ 0xD
   838                           
   839                           
   840                           ; 2 bytes @ 0xD
   841  002D                     	ds	1
   842  002E                     ___wmul@multiplicand:
   843  002E                     ___lwdiv@dividend:	
   844                           ; 2 bytes @ 0xE
   845                           
   846                           
   847                           ; 2 bytes @ 0xE
   848  002E                     	ds	1
   849  002F                     ??_cadena:
   850                           
   851                           ; 1 bytes @ 0xF
   852  002F                     	ds	1
   853  0030                     ??___wmul:
   854  0030                     ??___lwdiv:	
   855                           ; 1 bytes @ 0x10
   856                           
   857  0030                     ___wmul@product:	
   858                           ; 1 bytes @ 0x10
   859                           
   860                           
   861                           ; 2 bytes @ 0x10
   862  0030                     	ds	1
   863  0031                     ___lwdiv@counter:
   864                           
   865                           ; 1 bytes @ 0x11
   866  0031                     	ds	1
   867  0032                     ?___awdiv:
   868  0032                     ___awdiv@divisor:	
   869                           ; 2 bytes @ 0x12
   870                           
   871  0032                     ___lwdiv@quotient:	
   872                           ; 2 bytes @ 0x12
   873                           
   874                           
   875                           ; 2 bytes @ 0x12
   876  0032                     	ds	2
   877  0034                     ?___lwmod:
   878  0034                     ___awdiv@dividend:	
   879                           ; 2 bytes @ 0x14
   880                           
   881  0034                     ___lwmod@divisor:	
   882                           ; 2 bytes @ 0x14
   883                           
   884                           
   885                           ; 2 bytes @ 0x14
   886  0034                     	ds	2
   887  0036                     ??___awdiv:
   888  0036                     ___lwmod@dividend:	
   889                           ; 1 bytes @ 0x16
   890                           
   891                           
   892                           ; 2 bytes @ 0x16
   893  0036                     	ds	1
   894  0037                     ___awdiv@counter:
   895                           
   896                           ; 1 bytes @ 0x17
   897  0037                     	ds	1
   898  0038                     ??___lwmod:
   899  0038                     ___awdiv@sign:	
   900                           ; 1 bytes @ 0x18
   901                           
   902                           
   903                           ; 1 bytes @ 0x18
   904  0038                     	ds	1
   905  0039                     ___lwmod@counter:
   906  0039                     ___awdiv@quotient:	
   907                           ; 1 bytes @ 0x19
   908                           
   909                           
   910                           ; 2 bytes @ 0x19
   911  0039                     	ds	1
   912  003A                     ?_sprintf:
   913  003A                     sprintf@f:	
   914                           ; 2 bytes @ 0x1A
   915                           
   916                           
   917                           ; 1 bytes @ 0x1A
   918  003A                     	ds	1
   919  003B                     ??_parpadeo:
   920  003B                     ?_map:	
   921                           ; 1 bytes @ 0x1B
   922                           
   923  003B                     map@input:	
   924                           ; 2 bytes @ 0x1B
   925                           
   926                           
   927                           ; 2 bytes @ 0x1B
   928  003B                     	ds	2
   929  003D                     ??_sprintf:
   930  003D                     map@in_min:	
   931                           ; 1 bytes @ 0x1D
   932                           
   933  003D                     parpadeo@i:	
   934                           ; 2 bytes @ 0x1D
   935                           
   936                           
   937                           ; 2 bytes @ 0x1D
   938  003D                     	ds	2
   939  003F                     map@in_max:
   940                           
   941                           ; 2 bytes @ 0x1F
   942  003F                     	ds	1
   943  0040                     sprintf@ap:
   944                           
   945                           ; 1 bytes @ 0x20
   946  0040                     	ds	1
   947  0041                     sprintf@flag:
   948  0041                     map@out_min:	
   949                           ; 1 bytes @ 0x21
   950                           
   951                           
   952                           ; 2 bytes @ 0x21
   953  0041                     	ds	1
   954  0042                     sprintf@prec:
   955                           
   956                           ; 1 bytes @ 0x22
   957  0042                     	ds	1
   958  0043                     map@out_max:
   959  0043                     sprintf@val:	
   960                           ; 2 bytes @ 0x23
   961                           
   962                           
   963                           ; 2 bytes @ 0x23
   964  0043                     	ds	2
   965  0045                     ??_map:
   966  0045                     sprintf@sp:	
   967                           ; 1 bytes @ 0x25
   968                           
   969  0045                     map@output:	
   970                           ; 1 bytes @ 0x25
   971                           
   972                           
   973                           ; 2 bytes @ 0x25
   974  0045                     	ds	1
   975  0046                     sprintf@c:
   976                           
   977                           ; 1 bytes @ 0x26
   978  0046                     	ds	1
   979  0047                     ??_main:
   980                           
   981                           ; 1 bytes @ 0x27
   982  0047                     	ds	2
   983                           
   984                           	psect	maintext
   985  0037                     __pmaintext:	
   986 ;;
   987 ;;Main: autosize = 0, tempsize = 2, incstack = 0, save=0
   988 ;;
   989 ;; *************** function _main *****************
   990 ;; Defined at:
   991 ;;		line 352 in file "PROYECTO_02.c"
   992 ;; Parameters:    Size  Location     Type
   993 ;;		None
   994 ;; Auto vars:     Size  Location     Type
   995 ;;  valorazulStr    4    8[BANK1 ] unsigned char [4]
   996 ;;  valorverdeSt    4    4[BANK1 ] unsigned char [4]
   997 ;;  valorrojoStr    4    0[BANK1 ] unsigned char [4]
   998 ;; Return value:  Size  Location     Type
   999 ;;                  1    wreg      void 
  1000 ;; Registers used:
  1001 ;;		wreg, fsr0l, fsr0h, status,2, status,0, btemp+1, pclath, cstack
  1002 ;; Tracked objects:
  1003 ;;		On entry : B00/0
  1004 ;;		On exit  : 0/0
  1005 ;;		Unchanged: 0/0
  1006 ;; Data sizes:     COMMON   BANK0   BANK1   BANK3   BANK2
  1007 ;;      Params:         0       0       0       0       0
  1008 ;;      Locals:         0       0      12       0       0
  1009 ;;      Temps:          0       2       0       0       0
  1010 ;;      Totals:         0       2      12       0       0
  1011 ;;Total ram usage:       14 bytes
  1012 ;; Hardware stack levels required when called: 5
  1013 ;; This function calls:
  1014 ;;		_cadena
  1015 ;;		_enter
  1016 ;;		_map
  1017 ;;		_parpadeo
  1018 ;;		_setup
  1019 ;;		_setupADC
  1020 ;;		_setupPWM
  1021 ;;		_setupTMR0
  1022 ;;		_setupTMR2
  1023 ;;		_setup_UART
  1024 ;;		_sprintf
  1025 ;; This function is called by:
  1026 ;;		Startup code after reset
  1027 ;; This function uses a non-reentrant model
  1028 ;;
  1029                           
  1030  0037                     _main:	
  1031                           ;psect for function _main
  1032                           
  1033  0037                     l2585:	
  1034                           ;incstack = 0
  1035                           ; Regs used in _main: [wreg-fsr0h+status,2+status,0+btemp+1+pclath+cstack]
  1036                           
  1037                           
  1038                           ;PROYECTO_02.c: 354:     setup();
  1039  0037  120A  118A  27CD  120A  118A  	fcall	_setup
  1040                           
  1041                           ;PROYECTO_02.c: 355:     setupADC();
  1042  003C  120A  158A  271F  120A  118A  	fcall	_setupADC
  1043                           
  1044                           ;PROYECTO_02.c: 356:     setupTMR0();
  1045  0041  120A  158A  2700  120A  118A  	fcall	_setupTMR0
  1046                           
  1047                           ;PROYECTO_02.c: 357:     setupTMR2();
  1048  0046  120A  158A  26E7  120A  118A  	fcall	_setupTMR2
  1049                           
  1050                           ;PROYECTO_02.c: 358:     setupPWM();
  1051  004B  120A  118A  23DE  120A  118A  	fcall	_setupPWM
  1052                           
  1053                           ;PROYECTO_02.c: 359:     setup_UART();
  1054  0050  120A  158A  2735  120A  118A  	fcall	_setup_UART
  1055  0055                     l2587:
  1056                           
  1057                           ;PROYECTO_02.c: 363:         PORTCbits.RC4 = 1;
  1058  0055  1283               	bcf	3,5	;RP0=0, select bank0
  1059  0056  1303               	bcf	3,6	;RP1=0, select bank0
  1060  0057  1607               	bsf	7,4	;volatile
  1061  0058                     l2589:
  1062                           
  1063                           ;PROYECTO_02.c: 365:         if (!menuMostrado) {
  1064  0058  085C               	movf	_menuMostrado,w
  1065  0059  1D03               	btfss	3,2
  1066  005A  285C               	goto	u2101
  1067  005B  285D               	goto	u2100
  1068  005C                     u2101:
  1069  005C  286A               	goto	l2595
  1070  005D                     u2100:
  1071  005D                     l2591:
  1072                           
  1073                           ;PROYECTO_02.c: 367:             cadena("1. Leer potenciometros rgb \r\n2. Parpadear una
      +                           vez\r\n3. Parpadear dos veces\r\n");
  1074  005D  300B               	movlw	(low ((STR_1-__stringbase)| (0+32768)))& (0+255)
  1075  005E  00AD               	movwf	cadena@txt
  1076  005F  3080               	movlw	128
  1077  0060  00AE               	movwf	cadena@txt+1
  1078  0061  120A  158A  279F  120A  118A  	fcall	_cadena
  1079  0066                     l2593:
  1080                           
  1081                           ;PROYECTO_02.c: 368:             menuMostrado = 1;
  1082  0066  1283               	bcf	3,5	;RP0=0, select bank0
  1083  0067  1303               	bcf	3,6	;RP1=0, select bank0
  1084  0068  01DC               	clrf	_menuMostrado
  1085  0069  0ADC               	incf	_menuMostrado,f
  1086  006A                     l2595:
  1087                           
  1088                           ;PROYECTO_02.c: 371:         if (carac == 49) {
  1089  006A  3031               	movlw	49
  1090  006B  065D               	xorwf	_carac,w
  1091  006C  1D03               	btfss	3,2
  1092  006D  286F               	goto	u2111
  1093  006E  2870               	goto	u2110
  1094  006F                     u2111:
  1095  006F  28FF               	goto	l2619
  1096  0070                     u2110:
  1097  0070                     l2597:
  1098                           
  1099                           ;PROYECTO_02.c: 373:             enter();
  1100  0070  120A  158A  26F3  120A  118A  	fcall	_enter
  1101  0075                     l2599:
  1102                           
  1103                           ;PROYECTO_02.c: 374:             char valorrojoStr[4];;PROYECTO_02.c: 375:             s
      +                          printf(valorrojoStr, "%d", POT_ROJO);
  1104  0075  30E3               	movlw	(low ((STR_2-__stringbase)| (0+32768)))& (0+255)
  1105  0076  1283               	bcf	3,5	;RP0=0, select bank0
  1106  0077  1303               	bcf	3,6	;RP1=0, select bank0
  1107  0078  00C7               	movwf	??_main
  1108  0079  0847               	movf	??_main,w
  1109  007A  00BA               	movwf	sprintf@f
  1110  007B  085A               	movf	_POT_ROJO+1,w
  1111  007C  00BC               	movwf	?_sprintf+2
  1112  007D  0859               	movf	_POT_ROJO,w
  1113  007E  00BB               	movwf	?_sprintf+1
  1114  007F  30A0               	movlw	(low (main@valorrojoStr| 0))& (0+255)
  1115  0080  120A  118A  24F5  120A  118A  	fcall	_sprintf
  1116  0085                     l2601:
  1117                           
  1118                           ;PROYECTO_02.c: 376:             cadena("Valor del potenciometro rojo: ");
  1119  0085  3096               	movlw	(low ((STR_3-__stringbase)| (0+32768)))& (0+255)
  1120  0086  1283               	bcf	3,5	;RP0=0, select bank0
  1121  0087  1303               	bcf	3,6	;RP1=0, select bank0
  1122  0088  00AD               	movwf	cadena@txt
  1123  0089  3080               	movlw	128
  1124  008A  00AE               	movwf	cadena@txt+1
  1125  008B  120A  158A  279F  120A  118A  	fcall	_cadena
  1126  0090                     l2603:
  1127                           
  1128                           ;PROYECTO_02.c: 377:             cadena(valorrojoStr);
  1129  0090  30A0               	movlw	(low (main@valorrojoStr| 0))& (0+255)
  1130  0091  1283               	bcf	3,5	;RP0=0, select bank0
  1131  0092  1303               	bcf	3,6	;RP1=0, select bank0
  1132  0093  00AD               	movwf	cadena@txt
  1133  0094  3000               	movlw	0
  1134  0095  00AE               	movwf	cadena@txt+1
  1135  0096  120A  158A  279F  120A  118A  	fcall	_cadena
  1136  009B                     l2605:
  1137                           
  1138                           ;PROYECTO_02.c: 378:             enter();
  1139  009B  120A  158A  26F3  120A  118A  	fcall	_enter
  1140                           
  1141                           ;PROYECTO_02.c: 380:             char valorverdeStr[4];;PROYECTO_02.c: 381:             
      +                          sprintf(valorverdeStr, "%d", POT_VERDE);
  1142  00A0  30E3               	movlw	(low ((STR_2-__stringbase)| (0+32768)))& (0+255)
  1143  00A1  1283               	bcf	3,5	;RP0=0, select bank0
  1144  00A2  1303               	bcf	3,6	;RP1=0, select bank0
  1145  00A3  00C7               	movwf	??_main
  1146  00A4  0847               	movf	??_main,w
  1147  00A5  00BA               	movwf	sprintf@f
  1148  00A6  0858               	movf	_POT_VERDE+1,w
  1149  00A7  00BC               	movwf	?_sprintf+2
  1150  00A8  0857               	movf	_POT_VERDE,w
  1151  00A9  00BB               	movwf	?_sprintf+1
  1152  00AA  30A4               	movlw	(low (main@valorverdeStr| 0))& (0+255)
  1153  00AB  120A  118A  24F5  120A  118A  	fcall	_sprintf
  1154                           
  1155                           ;PROYECTO_02.c: 382:             cadena("Valor del potenciometro verde: ");
  1156  00B0  3057               	movlw	(low ((STR_5-__stringbase)| (0+32768)))& (0+255)
  1157  00B1  1283               	bcf	3,5	;RP0=0, select bank0
  1158  00B2  1303               	bcf	3,6	;RP1=0, select bank0
  1159  00B3  00AD               	movwf	cadena@txt
  1160  00B4  3080               	movlw	128
  1161  00B5  00AE               	movwf	cadena@txt+1
  1162  00B6  120A  158A  279F  120A  118A  	fcall	_cadena
  1163                           
  1164                           ;PROYECTO_02.c: 383:             cadena(valorverdeStr);
  1165  00BB  30A4               	movlw	(low (main@valorverdeStr| 0))& (0+255)
  1166  00BC  1283               	bcf	3,5	;RP0=0, select bank0
  1167  00BD  1303               	bcf	3,6	;RP1=0, select bank0
  1168  00BE  00AD               	movwf	cadena@txt
  1169  00BF  3000               	movlw	0
  1170  00C0  00AE               	movwf	cadena@txt+1
  1171  00C1  120A  158A  279F  120A  118A  	fcall	_cadena
  1172  00C6                     l2607:
  1173                           
  1174                           ;PROYECTO_02.c: 384:             enter();
  1175  00C6  120A  158A  26F3  120A  118A  	fcall	_enter
  1176  00CB                     l2609:
  1177                           
  1178                           ;PROYECTO_02.c: 386:             char valorazulStr[4];;PROYECTO_02.c: 387:             s
      +                          printf(valorazulStr, "%d", POT_AZUL);
  1179  00CB  30E3               	movlw	(low ((STR_2-__stringbase)| (0+32768)))& (0+255)
  1180  00CC  1283               	bcf	3,5	;RP0=0, select bank0
  1181  00CD  1303               	bcf	3,6	;RP1=0, select bank0
  1182  00CE  00C7               	movwf	??_main
  1183  00CF  0847               	movf	??_main,w
  1184  00D0  00BA               	movwf	sprintf@f
  1185  00D1  0856               	movf	_POT_AZUL+1,w
  1186  00D2  00BC               	movwf	?_sprintf+2
  1187  00D3  0855               	movf	_POT_AZUL,w
  1188  00D4  00BB               	movwf	?_sprintf+1
  1189  00D5  30A8               	movlw	(low (main@valorazulStr| 0))& (0+255)
  1190  00D6  120A  118A  24F5  120A  118A  	fcall	_sprintf
  1191  00DB                     l2611:
  1192                           
  1193                           ;PROYECTO_02.c: 388:             cadena("Valor del potenciometro azul: ");
  1194  00DB  3077               	movlw	(low ((STR_7-__stringbase)| (0+32768)))& (0+255)
  1195  00DC  1283               	bcf	3,5	;RP0=0, select bank0
  1196  00DD  1303               	bcf	3,6	;RP1=0, select bank0
  1197  00DE  00AD               	movwf	cadena@txt
  1198  00DF  3080               	movlw	128
  1199  00E0  00AE               	movwf	cadena@txt+1
  1200  00E1  120A  158A  279F  120A  118A  	fcall	_cadena
  1201  00E6                     l2613:
  1202                           
  1203                           ;PROYECTO_02.c: 389:             cadena(valorazulStr);
  1204  00E6  30A8               	movlw	(low (main@valorazulStr| 0))& (0+255)
  1205  00E7  1283               	bcf	3,5	;RP0=0, select bank0
  1206  00E8  1303               	bcf	3,6	;RP1=0, select bank0
  1207  00E9  00AD               	movwf	cadena@txt
  1208  00EA  3000               	movlw	0
  1209  00EB  00AE               	movwf	cadena@txt+1
  1210  00EC  120A  158A  279F  120A  118A  	fcall	_cadena
  1211                           
  1212                           ;PROYECTO_02.c: 390:             enter();
  1213  00F1  120A  158A  26F3  120A  118A  	fcall	_enter
  1214                           
  1215                           ;PROYECTO_02.c: 391:             enter();
  1216  00F6  120A  158A  26F3  120A  118A  	fcall	_enter
  1217  00FB                     l2615:
  1218                           
  1219                           ;PROYECTO_02.c: 394:             menuMostrado = 0;
  1220  00FB  1283               	bcf	3,5	;RP0=0, select bank0
  1221  00FC  1303               	bcf	3,6	;RP1=0, select bank0
  1222  00FD  01DC               	clrf	_menuMostrado
  1223  00FE                     l2617:
  1224                           
  1225                           ;PROYECTO_02.c: 395:             carac = 0;
  1226  00FE  01DD               	clrf	_carac
  1227  00FF                     l2619:
  1228                           
  1229                           ;PROYECTO_02.c: 398:         if (carac == 50){
  1230  00FF  3032               	movlw	50
  1231  0100  065D               	xorwf	_carac,w
  1232  0101  1D03               	btfss	3,2
  1233  0102  2904               	goto	u2121
  1234  0103  2905               	goto	u2120
  1235  0104                     u2121:
  1236  0104  2928               	goto	l2635
  1237  0105                     u2120:
  1238  0105                     l2621:
  1239                           
  1240                           ;PROYECTO_02.c: 400:             parpadeo();
  1241  0105  120A  118A  26B1  120A  118A  	fcall	_parpadeo
  1242  010A                     l2623:
  1243                           
  1244                           ;PROYECTO_02.c: 402:             enter();
  1245  010A  120A  158A  26F3  120A  118A  	fcall	_enter
  1246  010F                     l2625:
  1247                           
  1248                           ;PROYECTO_02.c: 403:             cadena("He parpadeado una vez");
  1249  010F  30CD               	movlw	(low ((STR_8-__stringbase)| (0+32768)))& (0+255)
  1250  0110  1283               	bcf	3,5	;RP0=0, select bank0
  1251  0111  1303               	bcf	3,6	;RP1=0, select bank0
  1252  0112  00AD               	movwf	cadena@txt
  1253  0113  3080               	movlw	128
  1254  0114  00AE               	movwf	cadena@txt+1
  1255  0115  120A  158A  279F  120A  118A  	fcall	_cadena
  1256  011A                     l2627:
  1257                           
  1258                           ;PROYECTO_02.c: 404:             enter();
  1259  011A  120A  158A  26F3  120A  118A  	fcall	_enter
  1260  011F                     l2629:
  1261                           
  1262                           ;PROYECTO_02.c: 405:             enter();
  1263  011F  120A  158A  26F3  120A  118A  	fcall	_enter
  1264  0124                     l2631:
  1265                           
  1266                           ;PROYECTO_02.c: 408:             menuMostrado = 0;
  1267  0124  1283               	bcf	3,5	;RP0=0, select bank0
  1268  0125  1303               	bcf	3,6	;RP1=0, select bank0
  1269  0126  01DC               	clrf	_menuMostrado
  1270  0127                     l2633:
  1271                           
  1272                           ;PROYECTO_02.c: 409:             carac = 0;
  1273  0127  01DD               	clrf	_carac
  1274  0128                     l2635:
  1275                           
  1276                           ;PROYECTO_02.c: 413:         if (carac == 51){
  1277  0128  3033               	movlw	51
  1278  0129  065D               	xorwf	_carac,w
  1279  012A  1D03               	btfss	3,2
  1280  012B  292D               	goto	u2131
  1281  012C  292E               	goto	u2130
  1282  012D                     u2131:
  1283  012D  2956               	goto	l2651
  1284  012E                     u2130:
  1285  012E                     l2637:
  1286                           
  1287                           ;PROYECTO_02.c: 415:             parpadeo();
  1288  012E  120A  118A  26B1  120A  118A  	fcall	_parpadeo
  1289                           
  1290                           ;PROYECTO_02.c: 416:             parpadeo();
  1291  0133  120A  118A  26B1  120A  118A  	fcall	_parpadeo
  1292  0138                     l2639:
  1293                           
  1294                           ;PROYECTO_02.c: 418:             enter();
  1295  0138  120A  158A  26F3  120A  118A  	fcall	_enter
  1296  013D                     l2641:
  1297                           
  1298                           ;PROYECTO_02.c: 419:             cadena("He parpadeado dos veces");
  1299  013D  30B5               	movlw	(low ((STR_9-__stringbase)| (0+32768)))& (0+255)
  1300  013E  1283               	bcf	3,5	;RP0=0, select bank0
  1301  013F  1303               	bcf	3,6	;RP1=0, select bank0
  1302  0140  00AD               	movwf	cadena@txt
  1303  0141  3080               	movlw	128
  1304  0142  00AE               	movwf	cadena@txt+1
  1305  0143  120A  158A  279F  120A  118A  	fcall	_cadena
  1306  0148                     l2643:
  1307                           
  1308                           ;PROYECTO_02.c: 420:             enter();
  1309  0148  120A  158A  26F3  120A  118A  	fcall	_enter
  1310  014D                     l2645:
  1311                           
  1312                           ;PROYECTO_02.c: 421:             enter();
  1313  014D  120A  158A  26F3  120A  118A  	fcall	_enter
  1314  0152                     l2647:
  1315                           
  1316                           ;PROYECTO_02.c: 424:             menuMostrado = 0;
  1317  0152  1283               	bcf	3,5	;RP0=0, select bank0
  1318  0153  1303               	bcf	3,6	;RP1=0, select bank0
  1319  0154  01DC               	clrf	_menuMostrado
  1320  0155                     l2649:
  1321                           
  1322                           ;PROYECTO_02.c: 425:             carac = 0;
  1323  0155  01DD               	clrf	_carac
  1324  0156                     l2651:
  1325                           
  1326                           ;PROYECTO_02.c: 430:         if (Bandera == 0){
  1327  0156  085E               	movf	_Bandera,w
  1328  0157  1D03               	btfss	3,2
  1329  0158  295A               	goto	u2141
  1330  0159  295B               	goto	u2140
  1331  015A                     u2141:
  1332  015A  2995               	goto	l2663
  1333  015B                     u2140:
  1334  015B                     l2653:
  1335                           
  1336                           ;PROYECTO_02.c: 432:             ADCON0bits.CHS3 = 0;
  1337  015B  129F               	bcf	31,5	;volatile
  1338                           
  1339                           ;PROYECTO_02.c: 433:             ADCON0bits.CHS2 = 0;
  1340  015C  121F               	bcf	31,4	;volatile
  1341                           
  1342                           ;PROYECTO_02.c: 434:             ADCON0bits.CHS1 = 0;
  1343  015D  119F               	bcf	31,3	;volatile
  1344                           
  1345                           ;PROYECTO_02.c: 435:             ADCON0bits.CHS0 = 0;
  1346  015E  111F               	bcf	31,2	;volatile
  1347                           
  1348                           ;PROYECTO_02.c: 437:             ADCON1bits.ADFM = 1;
  1349  015F  1683               	bsf	3,5	;RP0=1, select bank1
  1350  0160  1303               	bcf	3,6	;RP1=0, select bank1
  1351  0161  179F               	bsf	31,7	;volatile
  1352  0162                     l2655:
  1353                           
  1354                           ;PROYECTO_02.c: 440:             valor_adc = ADRESH << 8 | ADRESL;
  1355  0162  1283               	bcf	3,5	;RP0=0, select bank0
  1356  0163  1303               	bcf	3,6	;RP1=0, select bank0
  1357  0164  081E               	movf	30,w	;volatile
  1358  0165  00CA               	movwf	_valor_adc+1
  1359  0166  1683               	bsf	3,5	;RP0=1, select bank1
  1360  0167  1303               	bcf	3,6	;RP1=0, select bank1
  1361  0168  081E               	movf	30,w	;volatile
  1362  0169  1283               	bcf	3,5	;RP0=0, select bank0
  1363  016A  1303               	bcf	3,6	;RP1=0, select bank0
  1364  016B  00C9               	movwf	_valor_adc
  1365                           
  1366                           ;PROYECTO_02.c: 442:             duty_cycle1 = valor_adc >> 2;
  1367  016C  084A               	movf	_valor_adc+1,w
  1368  016D  00C8               	movwf	??_main+1
  1369  016E  0849               	movf	_valor_adc,w
  1370  016F  00C7               	movwf	??_main
  1371  0170  0D48               	rlf	??_main+1,w
  1372  0171  0CC8               	rrf	??_main+1,f
  1373  0172  0CC7               	rrf	??_main,f
  1374  0173  0D48               	rlf	??_main+1,w
  1375  0174  0CC8               	rrf	??_main+1,f
  1376  0175  0CC7               	rrf	??_main,f
  1377  0176  0847               	movf	??_main,w
  1378  0177  00D1               	movwf	_duty_cycle1
  1379  0178  0848               	movf	??_main+1,w
  1380  0179  00D2               	movwf	_duty_cycle1+1
  1381  017A                     l2657:
  1382                           
  1383                           ;PROYECTO_02.c: 444:             ADIF = 0;
  1384  017A  130C               	bcf	12,6	;volatile
  1385  017B                     l2659:
  1386                           
  1387                           ;PROYECTO_02.c: 446:             ADCON1bits.ADFM = 0;
  1388  017B  1683               	bsf	3,5	;RP0=1, select bank1
  1389  017C  1303               	bcf	3,6	;RP1=0, select bank1
  1390  017D  139F               	bcf	31,7	;volatile
  1391                           
  1392                           ;PROYECTO_02.c: 448:             POT_ROJO = ADRESH;
  1393  017E  1283               	bcf	3,5	;RP0=0, select bank0
  1394  017F  1303               	bcf	3,6	;RP1=0, select bank0
  1395  0180  081E               	movf	30,w	;volatile
  1396  0181  00C7               	movwf	??_main
  1397  0182  01C8               	clrf	??_main+1
  1398  0183  0847               	movf	??_main,w
  1399  0184  00D9               	movwf	_POT_ROJO
  1400  0185  0848               	movf	??_main+1,w
  1401  0186  00DA               	movwf	_POT_ROJO+1
  1402  0187                     l2661:
  1403                           
  1404                           ;PROYECTO_02.c: 450:             Bandera = 1;
  1405  0187  01DE               	clrf	_Bandera
  1406  0188  0ADE               	incf	_Bandera,f
  1407                           
  1408                           ;PROYECTO_02.c: 451:             _delay((unsigned long)((50)*(4000000/4000.0)));
  1409  0189  3041               	movlw	65
  1410  018A  1283               	bcf	3,5	;RP0=0, select bank0
  1411  018B  1303               	bcf	3,6	;RP1=0, select bank0
  1412  018C  00C8               	movwf	??_main+1
  1413  018D  30ED               	movlw	237
  1414  018E  00C7               	movwf	??_main
  1415  018F                     u2207:
  1416  018F  0BC7               	decfsz	??_main,f
  1417  0190  298F               	goto	u2207
  1418  0191  0BC8               	decfsz	??_main+1,f
  1419  0192  298F               	goto	u2207
  1420  0193  2994               	nop2
  1421                           
  1422                           ;PROYECTO_02.c: 453:         }
  1423  0194  2A86               	goto	l2719
  1424  0195                     l2663:
  1425  0195  035E               	decf	_Bandera,w
  1426  0196  1D03               	btfss	3,2
  1427  0197  2999               	goto	u2151
  1428  0198  299A               	goto	u2150
  1429  0199                     u2151:
  1430  0199  29D6               	goto	l2673
  1431  019A                     u2150:
  1432  019A                     l2665:
  1433                           
  1434                           ;PROYECTO_02.c: 457:             ADCON0bits.CHS3 = 0;
  1435  019A  129F               	bcf	31,5	;volatile
  1436                           
  1437                           ;PROYECTO_02.c: 458:             ADCON0bits.CHS2 = 0;
  1438  019B  121F               	bcf	31,4	;volatile
  1439                           
  1440                           ;PROYECTO_02.c: 459:             ADCON0bits.CHS1 = 0;
  1441  019C  119F               	bcf	31,3	;volatile
  1442                           
  1443                           ;PROYECTO_02.c: 460:             ADCON0bits.CHS0 = 1;
  1444  019D  151F               	bsf	31,2	;volatile
  1445                           
  1446                           ;PROYECTO_02.c: 462:             ADCON1bits.ADFM = 1;
  1447  019E  1683               	bsf	3,5	;RP0=1, select bank1
  1448  019F  1303               	bcf	3,6	;RP1=0, select bank1
  1449  01A0  179F               	bsf	31,7	;volatile
  1450  01A1                     l2667:
  1451                           
  1452                           ;PROYECTO_02.c: 465:             valor_adc = ADRESH << 8 | ADRESL;
  1453  01A1  1283               	bcf	3,5	;RP0=0, select bank0
  1454  01A2  1303               	bcf	3,6	;RP1=0, select bank0
  1455  01A3  081E               	movf	30,w	;volatile
  1456  01A4  00CA               	movwf	_valor_adc+1
  1457  01A5  1683               	bsf	3,5	;RP0=1, select bank1
  1458  01A6  1303               	bcf	3,6	;RP1=0, select bank1
  1459  01A7  081E               	movf	30,w	;volatile
  1460  01A8  1283               	bcf	3,5	;RP0=0, select bank0
  1461  01A9  1303               	bcf	3,6	;RP1=0, select bank0
  1462  01AA  00C9               	movwf	_valor_adc
  1463                           
  1464                           ;PROYECTO_02.c: 467:             duty_cycle2 = valor_adc >> 2;
  1465  01AB  084A               	movf	_valor_adc+1,w
  1466  01AC  00C8               	movwf	??_main+1
  1467  01AD  0849               	movf	_valor_adc,w
  1468  01AE  00C7               	movwf	??_main
  1469  01AF  0D48               	rlf	??_main+1,w
  1470  01B0  0CC8               	rrf	??_main+1,f
  1471  01B1  0CC7               	rrf	??_main,f
  1472  01B2  0D48               	rlf	??_main+1,w
  1473  01B3  0CC8               	rrf	??_main+1,f
  1474  01B4  0CC7               	rrf	??_main,f
  1475  01B5  0847               	movf	??_main,w
  1476  01B6  00CF               	movwf	_duty_cycle2
  1477  01B7  0848               	movf	??_main+1,w
  1478  01B8  00D0               	movwf	_duty_cycle2+1
  1479  01B9                     l2669:
  1480                           
  1481                           ;PROYECTO_02.c: 469:             ADIF = 0;
  1482  01B9  130C               	bcf	12,6	;volatile
  1483  01BA                     l2671:
  1484                           
  1485                           ;PROYECTO_02.c: 471:             ADCON1bits.ADFM = 0;
  1486  01BA  1683               	bsf	3,5	;RP0=1, select bank1
  1487  01BB  1303               	bcf	3,6	;RP1=0, select bank1
  1488  01BC  139F               	bcf	31,7	;volatile
  1489                           
  1490                           ;PROYECTO_02.c: 473:             POT_VERDE = ADRESH;
  1491  01BD  1283               	bcf	3,5	;RP0=0, select bank0
  1492  01BE  1303               	bcf	3,6	;RP1=0, select bank0
  1493  01BF  081E               	movf	30,w	;volatile
  1494  01C0  00C7               	movwf	??_main
  1495  01C1  01C8               	clrf	??_main+1
  1496  01C2  0847               	movf	??_main,w
  1497  01C3  00D7               	movwf	_POT_VERDE
  1498  01C4  0848               	movf	??_main+1,w
  1499  01C5  00D8               	movwf	_POT_VERDE+1
  1500                           
  1501                           ;PROYECTO_02.c: 475:             Bandera = 2;
  1502  01C6  3002               	movlw	2
  1503  01C7  00C7               	movwf	??_main
  1504  01C8  0847               	movf	??_main,w
  1505  01C9  00DE               	movwf	_Bandera
  1506                           
  1507                           ;PROYECTO_02.c: 476:             _delay((unsigned long)((50)*(4000000/4000.0)));
  1508  01CA  3041               	movlw	65
  1509  01CB  1283               	bcf	3,5	;RP0=0, select bank0
  1510  01CC  1303               	bcf	3,6	;RP1=0, select bank0
  1511  01CD  00C8               	movwf	??_main+1
  1512  01CE  30ED               	movlw	237
  1513  01CF  00C7               	movwf	??_main
  1514  01D0                     u2217:
  1515  01D0  0BC7               	decfsz	??_main,f
  1516  01D1  29D0               	goto	u2217
  1517  01D2  0BC8               	decfsz	??_main+1,f
  1518  01D3  29D0               	goto	u2217
  1519  01D4  29D5               	nop2
  1520                           
  1521                           ;PROYECTO_02.c: 478:         }
  1522  01D5  2A86               	goto	l2719
  1523  01D6                     l2673:
  1524  01D6  3002               	movlw	2
  1525  01D7  065E               	xorwf	_Bandera,w
  1526  01D8  1D03               	btfss	3,2
  1527  01D9  29DB               	goto	u2161
  1528  01DA  29DC               	goto	u2160
  1529  01DB                     u2161:
  1530  01DB  2A18               	goto	l2683
  1531  01DC                     u2160:
  1532  01DC                     l2675:
  1533                           
  1534                           ;PROYECTO_02.c: 482:             ADCON0bits.CHS3 = 0;
  1535  01DC  129F               	bcf	31,5	;volatile
  1536                           
  1537                           ;PROYECTO_02.c: 483:             ADCON0bits.CHS2 = 0;
  1538  01DD  121F               	bcf	31,4	;volatile
  1539                           
  1540                           ;PROYECTO_02.c: 484:             ADCON0bits.CHS1 = 1;
  1541  01DE  159F               	bsf	31,3	;volatile
  1542                           
  1543                           ;PROYECTO_02.c: 485:             ADCON0bits.CHS0 = 0;
  1544  01DF  111F               	bcf	31,2	;volatile
  1545                           
  1546                           ;PROYECTO_02.c: 487:             ADCON1bits.ADFM = 1;
  1547  01E0  1683               	bsf	3,5	;RP0=1, select bank1
  1548  01E1  1303               	bcf	3,6	;RP1=0, select bank1
  1549  01E2  179F               	bsf	31,7	;volatile
  1550  01E3                     l2677:
  1551                           
  1552                           ;PROYECTO_02.c: 490:             valor_adc = ADRESH << 8 | ADRESL;
  1553  01E3  1283               	bcf	3,5	;RP0=0, select bank0
  1554  01E4  1303               	bcf	3,6	;RP1=0, select bank0
  1555  01E5  081E               	movf	30,w	;volatile
  1556  01E6  00CA               	movwf	_valor_adc+1
  1557  01E7  1683               	bsf	3,5	;RP0=1, select bank1
  1558  01E8  1303               	bcf	3,6	;RP1=0, select bank1
  1559  01E9  081E               	movf	30,w	;volatile
  1560  01EA  1283               	bcf	3,5	;RP0=0, select bank0
  1561  01EB  1303               	bcf	3,6	;RP1=0, select bank0
  1562  01EC  00C9               	movwf	_valor_adc
  1563                           
  1564                           ;PROYECTO_02.c: 492:             duty_cycle3 = valor_adc >> 2;
  1565  01ED  084A               	movf	_valor_adc+1,w
  1566  01EE  00C8               	movwf	??_main+1
  1567  01EF  0849               	movf	_valor_adc,w
  1568  01F0  00C7               	movwf	??_main
  1569  01F1  0D48               	rlf	??_main+1,w
  1570  01F2  0CC8               	rrf	??_main+1,f
  1571  01F3  0CC7               	rrf	??_main,f
  1572  01F4  0D48               	rlf	??_main+1,w
  1573  01F5  0CC8               	rrf	??_main+1,f
  1574  01F6  0CC7               	rrf	??_main,f
  1575  01F7  0847               	movf	??_main,w
  1576  01F8  00CD               	movwf	_duty_cycle3
  1577  01F9  0848               	movf	??_main+1,w
  1578  01FA  00CE               	movwf	_duty_cycle3+1
  1579  01FB                     l2679:
  1580                           
  1581                           ;PROYECTO_02.c: 494:             ADIF = 0;
  1582  01FB  130C               	bcf	12,6	;volatile
  1583  01FC                     l2681:
  1584                           
  1585                           ;PROYECTO_02.c: 496:             ADCON1bits.ADFM = 0;
  1586  01FC  1683               	bsf	3,5	;RP0=1, select bank1
  1587  01FD  1303               	bcf	3,6	;RP1=0, select bank1
  1588  01FE  139F               	bcf	31,7	;volatile
  1589                           
  1590                           ;PROYECTO_02.c: 498:             POT_AZUL = ADRESH;
  1591  01FF  1283               	bcf	3,5	;RP0=0, select bank0
  1592  0200  1303               	bcf	3,6	;RP1=0, select bank0
  1593  0201  081E               	movf	30,w	;volatile
  1594  0202  00C7               	movwf	??_main
  1595  0203  01C8               	clrf	??_main+1
  1596  0204  0847               	movf	??_main,w
  1597  0205  00D5               	movwf	_POT_AZUL
  1598  0206  0848               	movf	??_main+1,w
  1599  0207  00D6               	movwf	_POT_AZUL+1
  1600                           
  1601                           ;PROYECTO_02.c: 500:             Bandera = 3;
  1602  0208  3003               	movlw	3
  1603  0209  00C7               	movwf	??_main
  1604  020A  0847               	movf	??_main,w
  1605  020B  00DE               	movwf	_Bandera
  1606                           
  1607                           ;PROYECTO_02.c: 501:             _delay((unsigned long)((50)*(4000000/4000.0)));
  1608  020C  3041               	movlw	65
  1609  020D  1283               	bcf	3,5	;RP0=0, select bank0
  1610  020E  1303               	bcf	3,6	;RP1=0, select bank0
  1611  020F  00C8               	movwf	??_main+1
  1612  0210  30ED               	movlw	237
  1613  0211  00C7               	movwf	??_main
  1614  0212                     u2227:
  1615  0212  0BC7               	decfsz	??_main,f
  1616  0213  2A12               	goto	u2227
  1617  0214  0BC8               	decfsz	??_main+1,f
  1618  0215  2A12               	goto	u2227
  1619  0216  2A17               	nop2
  1620                           
  1621                           ;PROYECTO_02.c: 503:         }
  1622  0217  2A86               	goto	l2719
  1623  0218                     l2683:
  1624  0218  3003               	movlw	3
  1625  0219  065E               	xorwf	_Bandera,w
  1626  021A  1D03               	btfss	3,2
  1627  021B  2A1D               	goto	u2171
  1628  021C  2A1E               	goto	u2170
  1629  021D                     u2171:
  1630  021D  2A56               	goto	l2701
  1631  021E                     u2170:
  1632  021E                     l2685:
  1633                           
  1634                           ;PROYECTO_02.c: 507:             CCPR1L = (char) map (ADRESH, 0, 255, 90, 120);
  1635  021E  081E               	movf	30,w	;volatile
  1636  021F  00C7               	movwf	??_main
  1637  0220  01C8               	clrf	??_main+1
  1638  0221  0847               	movf	??_main,w
  1639  0222  00BB               	movwf	map@input
  1640  0223  0848               	movf	??_main+1,w
  1641  0224  00BC               	movwf	map@input+1
  1642  0225  3000               	movlw	0
  1643  0226  00BD               	movwf	map@in_min
  1644  0227  00BE               	movwf	map@in_min+1
  1645  0228  30FF               	movlw	255
  1646  0229  00BF               	movwf	map@in_max
  1647  022A  3000               	movlw	0
  1648  022B  00C0               	movwf	map@in_max+1
  1649  022C  305A               	movlw	90
  1650  022D  00C1               	movwf	map@out_min
  1651  022E  3000               	movlw	0
  1652  022F  00C2               	movwf	map@out_min+1
  1653  0230  3078               	movlw	120
  1654  0231  00C3               	movwf	map@out_max
  1655  0232  3000               	movlw	0
  1656  0233  00C4               	movwf	map@out_max+1
  1657  0234  120A  118A  23A5  120A  118A  	fcall	_map
  1658  0239  1283               	bcf	3,5	;RP0=0, select bank0
  1659  023A  1303               	bcf	3,6	;RP1=0, select bank0
  1660  023B  083B               	movf	?_map,w
  1661  023C  0095               	movwf	21	;volatile
  1662  023D                     l2687:
  1663                           
  1664                           ;PROYECTO_02.c: 508:             ADCON0bits.CHS3 = 0;
  1665  023D  129F               	bcf	31,5	;volatile
  1666  023E                     l2689:
  1667                           
  1668                           ;PROYECTO_02.c: 509:             ADCON0bits.CHS2 = 1;
  1669  023E  161F               	bsf	31,4	;volatile
  1670  023F                     l2691:
  1671                           
  1672                           ;PROYECTO_02.c: 510:             ADCON0bits.CHS1 = 0;
  1673  023F  119F               	bcf	31,3	;volatile
  1674  0240                     l2693:
  1675                           
  1676                           ;PROYECTO_02.c: 511:             ADCON0bits.CHS0 = 0;
  1677  0240  111F               	bcf	31,2	;volatile
  1678  0241                     l2695:
  1679                           
  1680                           ;PROYECTO_02.c: 513:             ADCON1bits.ADFM = 0;
  1681  0241  1683               	bsf	3,5	;RP0=1, select bank1
  1682  0242  1303               	bcf	3,6	;RP1=0, select bank1
  1683  0243  139F               	bcf	31,7	;volatile
  1684  0244                     l2697:
  1685                           
  1686                           ;PROYECTO_02.c: 515:             Bandera = 4;
  1687  0244  3004               	movlw	4
  1688  0245  1283               	bcf	3,5	;RP0=0, select bank0
  1689  0246  1303               	bcf	3,6	;RP1=0, select bank0
  1690  0247  00C7               	movwf	??_main
  1691  0248  0847               	movf	??_main,w
  1692  0249  00DE               	movwf	_Bandera
  1693  024A                     l2699:
  1694                           
  1695                           ;PROYECTO_02.c: 516:             _delay((unsigned long)((50)*(4000000/4000.0)));
  1696  024A  3041               	movlw	65
  1697  024B  1283               	bcf	3,5	;RP0=0, select bank0
  1698  024C  1303               	bcf	3,6	;RP1=0, select bank0
  1699  024D  00C8               	movwf	??_main+1
  1700  024E  30ED               	movlw	237
  1701  024F  00C7               	movwf	??_main
  1702  0250                     u2237:
  1703  0250  0BC7               	decfsz	??_main,f
  1704  0251  2A50               	goto	u2237
  1705  0252  0BC8               	decfsz	??_main+1,f
  1706  0253  2A50               	goto	u2237
  1707  0254  2A55               	nop2
  1708                           
  1709                           ;PROYECTO_02.c: 518:         }
  1710  0255  2A86               	goto	l2719
  1711  0256                     l2701:
  1712  0256  3004               	movlw	4
  1713  0257  065E               	xorwf	_Bandera,w
  1714  0258  1D03               	btfss	3,2
  1715  0259  2A5B               	goto	u2181
  1716  025A  2A5C               	goto	u2180
  1717  025B                     u2181:
  1718  025B  2A86               	goto	l253
  1719  025C                     u2180:
  1720  025C                     l2703:
  1721                           
  1722                           ;PROYECTO_02.c: 522:             CCPR2L = (char) map (ADRESH, 0, 255, 90, 120);
  1723  025C  081E               	movf	30,w	;volatile
  1724  025D  00C7               	movwf	??_main
  1725  025E  01C8               	clrf	??_main+1
  1726  025F  0847               	movf	??_main,w
  1727  0260  00BB               	movwf	map@input
  1728  0261  0848               	movf	??_main+1,w
  1729  0262  00BC               	movwf	map@input+1
  1730  0263  3000               	movlw	0
  1731  0264  00BD               	movwf	map@in_min
  1732  0265  00BE               	movwf	map@in_min+1
  1733  0266  30FF               	movlw	255
  1734  0267  00BF               	movwf	map@in_max
  1735  0268  3000               	movlw	0
  1736  0269  00C0               	movwf	map@in_max+1
  1737  026A  305A               	movlw	90
  1738  026B  00C1               	movwf	map@out_min
  1739  026C  3000               	movlw	0
  1740  026D  00C2               	movwf	map@out_min+1
  1741  026E  3078               	movlw	120
  1742  026F  00C3               	movwf	map@out_max
  1743  0270  3000               	movlw	0
  1744  0271  00C4               	movwf	map@out_max+1
  1745  0272  120A  118A  23A5  120A  118A  	fcall	_map
  1746  0277  1283               	bcf	3,5	;RP0=0, select bank0
  1747  0278  1303               	bcf	3,6	;RP1=0, select bank0
  1748  0279  083B               	movf	?_map,w
  1749  027A  009B               	movwf	27	;volatile
  1750  027B                     l2705:
  1751                           
  1752                           ;PROYECTO_02.c: 523:             ADCON0bits.CHS3 = 0;
  1753  027B  129F               	bcf	31,5	;volatile
  1754  027C                     l2707:
  1755                           
  1756                           ;PROYECTO_02.c: 524:             ADCON0bits.CHS2 = 0;
  1757  027C  121F               	bcf	31,4	;volatile
  1758  027D                     l2709:
  1759                           
  1760                           ;PROYECTO_02.c: 525:             ADCON0bits.CHS1 = 1;
  1761  027D  159F               	bsf	31,3	;volatile
  1762  027E                     l2711:
  1763                           
  1764                           ;PROYECTO_02.c: 526:             ADCON0bits.CHS0 = 1;
  1765  027E  151F               	bsf	31,2	;volatile
  1766  027F                     l2713:
  1767                           
  1768                           ;PROYECTO_02.c: 528:             ADCON1bits.ADFM = 0;
  1769  027F  1683               	bsf	3,5	;RP0=1, select bank1
  1770  0280  1303               	bcf	3,6	;RP1=0, select bank1
  1771  0281  139F               	bcf	31,7	;volatile
  1772  0282                     l2715:
  1773                           
  1774                           ;PROYECTO_02.c: 530:             Bandera = 0;
  1775  0282  1283               	bcf	3,5	;RP0=0, select bank0
  1776  0283  1303               	bcf	3,6	;RP1=0, select bank0
  1777  0284  01DE               	clrf	_Bandera
  1778  0285  2A4A               	goto	l2699
  1779  0286                     l253:
  1780  0286                     l2719:
  1781                           
  1782                           ;PROYECTO_02.c: 535:         ADCON0bits.GO = 1;
  1783  0286  1283               	bcf	3,5	;RP0=0, select bank0
  1784  0287  1303               	bcf	3,6	;RP1=0, select bank0
  1785  0288  149F               	bsf	31,1	;volatile
  1786  0289                     l259:	
  1787                           ;PROYECTO_02.c: 536:         while(ADCON0bits.GO == 1);
  1788                           
  1789  0289  189F               	btfsc	31,1	;volatile
  1790  028A  2A8C               	goto	u2191
  1791  028B  2A8D               	goto	u2190
  1792  028C                     u2191:
  1793  028C  2A89               	goto	l259
  1794  028D                     u2190:
  1795  028D                     l261:
  1796                           
  1797                           ;PROYECTO_02.c: 537:         ADIF = 0;
  1798  028D  130C               	bcf	12,6	;volatile
  1799  028E  2855               	goto	l2587
  1800  028F  120A  118A  2810   	ljmp	start
  1801  0292                     __end_of_main:
  1802                           
  1803                           	psect	text1
  1804  04F5                     __ptext1:	
  1805 ;; *************** function _sprintf *****************
  1806 ;; Defined at:
  1807 ;;		line 505 in file "C:\Program Files\Microchip\xc8\v2.35\pic\sources\c90\common\doprnt.c"
  1808 ;; Parameters:    Size  Location     Type
  1809 ;;  sp              1    wreg     PTR unsigned char 
  1810 ;;		 -> main@valorazulStr(4), main@valorverdeStr(4), main@valorrojoStr(4), 
  1811 ;;  f               1   26[BANK0 ] PTR const unsigned char 
  1812 ;;		 -> STR_6(3), STR_4(3), STR_2(3), 
  1813 ;; Auto vars:     Size  Location     Type
  1814 ;;  sp              1   37[BANK0 ] PTR unsigned char 
  1815 ;;		 -> main@valorazulStr(4), main@valorverdeStr(4), main@valorrojoStr(4), 
  1816 ;;  tmpval          4    0        struct .
  1817 ;;  val             2   35[BANK0 ] unsigned int 
  1818 ;;  cp              2    0        PTR const unsigned char 
  1819 ;;  len             2    0        unsigned int 
  1820 ;;  c               1   38[BANK0 ] unsigned char 
  1821 ;;  prec            1   34[BANK0 ] char 
  1822 ;;  flag            1   33[BANK0 ] unsigned char 
  1823 ;;  ap              1   32[BANK0 ] PTR void [1]
  1824 ;;		 -> ?_sprintf(2), 
  1825 ;; Return value:  Size  Location     Type
  1826 ;;                  2   26[BANK0 ] int 
  1827 ;; Registers used:
  1828 ;;		wreg, fsr0l, fsr0h, status,2, status,0, btemp+1, pclath, cstack
  1829 ;; Tracked objects:
  1830 ;;		On entry : 0/0
  1831 ;;		On exit  : 0/0
  1832 ;;		Unchanged: 0/0
  1833 ;; Data sizes:     COMMON   BANK0   BANK1   BANK3   BANK2
  1834 ;;      Params:         0       3       0       0       0
  1835 ;;      Locals:         0       7       0       0       0
  1836 ;;      Temps:          0       3       0       0       0
  1837 ;;      Totals:         0      13       0       0       0
  1838 ;;Total ram usage:       13 bytes
  1839 ;; Hardware stack levels used: 1
  1840 ;; Hardware stack levels required when called: 4
  1841 ;; This function calls:
  1842 ;;		___lwdiv
  1843 ;;		___lwmod
  1844 ;; This function is called by:
  1845 ;;		_main
  1846 ;; This function uses a non-reentrant model
  1847 ;;
  1848                           
  1849  04F5                     _sprintf:	
  1850                           ;psect for function _sprintf
  1851                           
  1852                           
  1853                           ;incstack = 0
  1854                           ; Regs used in _sprintf: [wreg-fsr0h+status,2+status,0+btemp+1+pclath+cstack]
  1855                           ;sprintf@sp stored from wreg
  1856  04F5  1283               	bcf	3,5	;RP0=0, select bank0
  1857  04F6  1303               	bcf	3,6	;RP1=0, select bank0
  1858  04F7  00C5               	movwf	sprintf@sp
  1859  04F8                     l2523:
  1860                           
  1861                           ;C:\Program Files\Microchip\xc8\v2.35\pic\sources\c90\common\doprnt.c: 505: sprintf(char
      +                           * sp, const char * f, ...);C:\Program Files\Microchip\xc8\v2.35\pic\sources\c90\common\
      +                          doprnt.c: 506: {;C:\Program Files\Microchip\xc8\v2.35\pic\sources\c90\common\doprnt.c: 5
      +                          07:  va_list ap;;C:\Program Files\Microchip\xc8\v2.35\pic\sources\c90\common\doprnt.c: 5
      +                          12:  char c;;C:\Program Files\Microchip\xc8\v2.35\pic\sources\c90\common\doprnt.c: 521: 
      +                           signed char prec;;C:\Program Files\Microchip\xc8\v2.35\pic\sources\c90\common\doprnt.c:
      +                           525:  unsigned char flag;
  1862  04F8  303B               	movlw	(low ((?_sprintf| 0+1)))& (0+255)
  1863  04F9  00BD               	movwf	??_sprintf
  1864  04FA  083D               	movf	??_sprintf,w
  1865  04FB  00C0               	movwf	sprintf@ap
  1866                           
  1867                           ;C:\Program Files\Microchip\xc8\v2.35\pic\sources\c90\common\doprnt.c: 553:  while((c = 
      +                          *f++)) {
  1868  04FC  2DC8               	goto	l2575
  1869  04FD                     l2525:
  1870                           
  1871                           ;C:\Program Files\Microchip\xc8\v2.35\pic\sources\c90\common\doprnt.c: 555:   if(c != '%
      +                          ')
  1872  04FD  3025               	movlw	37
  1873  04FE  0646               	xorwf	sprintf@c,w
  1874  04FF  1903               	btfsc	3,2
  1875  0500  2D02               	goto	u2031
  1876  0501  2D03               	goto	u2030
  1877  0502                     u2031:
  1878  0502  2D0F               	goto	l2531
  1879  0503                     u2030:
  1880  0503                     l2527:
  1881                           
  1882                           ;C:\Program Files\Microchip\xc8\v2.35\pic\sources\c90\common\doprnt.c: 557:   {;C:\Progr
      +                          am Files\Microchip\xc8\v2.35\pic\sources\c90\common\doprnt.c: 558:    ((*sp++ = (c)));
  1883  0503  0846               	movf	sprintf@c,w
  1884  0504  00BD               	movwf	??_sprintf
  1885  0505  0845               	movf	sprintf@sp,w
  1886  0506  0084               	movwf	4
  1887  0507  083D               	movf	??_sprintf,w
  1888  0508  1383               	bcf	3,7	;select IRP bank0
  1889  0509  0080               	movwf	0
  1890  050A                     l2529:
  1891  050A  3001               	movlw	1
  1892  050B  00BD               	movwf	??_sprintf
  1893  050C  083D               	movf	??_sprintf,w
  1894  050D  07C5               	addwf	sprintf@sp,f
  1895                           
  1896                           ;C:\Program Files\Microchip\xc8\v2.35\pic\sources\c90\common\doprnt.c: 559:    continue;
  1897  050E  2DC8               	goto	l2575
  1898  050F                     l2531:
  1899                           
  1900                           ;C:\Program Files\Microchip\xc8\v2.35\pic\sources\c90\common\doprnt.c: 565:   flag = 0;
  1901  050F  01C1               	clrf	sprintf@flag
  1902  0510                     l2535:	
  1903                           ;C:\Program Files\Microchip\xc8\v2.35\pic\sources\c90\common\doprnt.c: 661:   switch(c =
      +                           *f++) {
  1904                           
  1905  0510  3001               	movlw	1
  1906  0511  07BA               	addwf	sprintf@f,f
  1907  0512  30FF               	movlw	-1
  1908  0513  073A               	addwf	sprintf@f,w
  1909  0514  0084               	movwf	4
  1910  0515  120A  118A  240A  120A  118A  	fcall	stringdir
  1911  051A  00C6               	movwf	sprintf@c
  1912  051B  00BD               	movwf	??_sprintf
  1913  051C  01BE               	clrf	??_sprintf+1
  1914                           
  1915                           ; Switch on 2 bytes has been partitioned into a top level switch of size 1, and 1 sub-sw
      +                          itches
  1916                           ; Switch size 1, requested type "simple"
  1917                           ; Number of cases is 1, Range of values is 0 to 0
  1918                           ; switch strategies available:
  1919                           ; Name         Instructions Cycles
  1920                           ; simple_byte            4     3 (average)
  1921                           ; direct_byte           11     8 (fixed)
  1922                           ; jumptable            260     6 (fixed)
  1923                           ;	Chosen strategy is simple_byte
  1924  051D  083E               	movf	??_sprintf+1,w
  1925  051E  3A00               	xorlw	0	; case 0
  1926  051F  1903               	skipnz
  1927  0520  2D22               	goto	l2741
  1928  0521  2DC8               	goto	l2575
  1929  0522                     l2741:
  1930                           
  1931                           ; Switch size 1, requested type "simple"
  1932                           ; Number of cases is 3, Range of values is 0 to 105
  1933                           ; switch strategies available:
  1934                           ; Name         Instructions Cycles
  1935                           ; simple_byte           10     6 (average)
  1936                           ; jumptable            260     6 (fixed)
  1937                           ;	Chosen strategy is simple_byte
  1938  0522  083D               	movf	??_sprintf,w
  1939  0523  3A00               	xorlw	0	; case 0
  1940  0524  1903               	skipnz
  1941  0525  2DDA               	goto	l2577
  1942  0526  3A64               	xorlw	100	; case 100
  1943  0527  1903               	skipnz
  1944  0528  2D2D               	goto	l2537
  1945  0529  3A0D               	xorlw	13	; case 105
  1946  052A  1903               	skipnz
  1947  052B  2D2D               	goto	l2537
  1948  052C  2DC8               	goto	l2575
  1949  052D                     l2537:
  1950                           
  1951                           ;C:\Program Files\Microchip\xc8\v2.35\pic\sources\c90\common\doprnt.c: 1279:   {;C:\Prog
      +                          ram Files\Microchip\xc8\v2.35\pic\sources\c90\common\doprnt.c: 1285:     val = (unsigned
      +                           int)(*(int *)__va_arg((*(int **)ap), (int)0));
  1952  052D  0840               	movf	sprintf@ap,w
  1953  052E  0084               	movwf	4
  1954  052F  1383               	bcf	3,7	;select IRP bank0
  1955  0530  0800               	movf	0,w
  1956  0531  00C3               	movwf	sprintf@val
  1957  0532  0A84               	incf	4,f
  1958  0533  0800               	movf	0,w
  1959  0534  00C4               	movwf	sprintf@val+1
  1960  0535                     l2539:
  1961  0535  3002               	movlw	2
  1962  0536  00BD               	movwf	??_sprintf
  1963  0537  083D               	movf	??_sprintf,w
  1964  0538  07C0               	addwf	sprintf@ap,f
  1965  0539                     l2541:
  1966                           
  1967                           ;C:\Program Files\Microchip\xc8\v2.35\pic\sources\c90\common\doprnt.c: 1287:    if((int)
      +                          val < 0) {
  1968  0539  1FC4               	btfss	sprintf@val+1,7
  1969  053A  2D3C               	goto	u2041
  1970  053B  2D3D               	goto	u2040
  1971  053C                     u2041:
  1972  053C  2D46               	goto	l2547
  1973  053D                     u2040:
  1974  053D                     l2543:
  1975                           
  1976                           ;C:\Program Files\Microchip\xc8\v2.35\pic\sources\c90\common\doprnt.c: 1288:     flag |=
      +                           0x03;
  1977  053D  3003               	movlw	3
  1978  053E  00BD               	movwf	??_sprintf
  1979  053F  083D               	movf	??_sprintf,w
  1980  0540  04C1               	iorwf	sprintf@flag,f
  1981  0541                     l2545:
  1982                           
  1983                           ;C:\Program Files\Microchip\xc8\v2.35\pic\sources\c90\common\doprnt.c: 1289:     val = -
      +                          val;
  1984  0541  09C3               	comf	sprintf@val,f
  1985  0542  09C4               	comf	sprintf@val+1,f
  1986  0543  0AC3               	incf	sprintf@val,f
  1987  0544  1903               	skipnz
  1988  0545  0AC4               	incf	sprintf@val+1,f
  1989  0546                     l2547:
  1990                           
  1991                           ;C:\Program Files\Microchip\xc8\v2.35\pic\sources\c90\common\doprnt.c: 1292:   };C:\Prog
      +                          ram Files\Microchip\xc8\v2.35\pic\sources\c90\common\doprnt.c: 1331:    for(c = 1 ; c !=
      +                           sizeof dpowers/sizeof dpowers[0] ; c++)
  1992  0546  01C6               	clrf	sprintf@c
  1993  0547  0AC6               	incf	sprintf@c,f
  1994  0548                     l2553:
  1995                           
  1996                           ;C:\Program Files\Microchip\xc8\v2.35\pic\sources\c90\common\doprnt.c: 1332:     if(val 
      +                          < dpowers[c])
  1997  0548  0846               	movf	sprintf@c,w
  1998  0549  00BD               	movwf	??_sprintf
  1999  054A  073D               	addwf	??_sprintf,w
  2000  054B  3E01               	addlw	low ((_dpowers-__stringbase)| (0+32768))
  2001  054C  0084               	movwf	4
  2002  054D  120A  118A  240A  120A  118A  	fcall	stringdir
  2003  0552  00BE               	movwf	??_sprintf+1
  2004  0553  120A  118A  240A  120A  118A  	fcall	stringdir
  2005  0558  00BF               	movwf	??_sprintf+2
  2006  0559  083F               	movf	??_sprintf+2,w
  2007  055A  0244               	subwf	sprintf@val+1,w
  2008  055B  1D03               	skipz
  2009  055C  2D5F               	goto	u2055
  2010  055D  083E               	movf	??_sprintf+1,w
  2011  055E  0243               	subwf	sprintf@val,w
  2012  055F                     u2055:
  2013  055F  1803               	skipnc
  2014  0560  2D62               	goto	u2051
  2015  0561  2D63               	goto	u2050
  2016  0562                     u2051:
  2017  0562  2D64               	goto	l2557
  2018  0563                     u2050:
  2019  0563  2D6E               	goto	l2559
  2020  0564                     l2557:
  2021  0564  3001               	movlw	1
  2022  0565  00BD               	movwf	??_sprintf
  2023  0566  083D               	movf	??_sprintf,w
  2024  0567  07C6               	addwf	sprintf@c,f
  2025  0568  3005               	movlw	5
  2026  0569  0646               	xorwf	sprintf@c,w
  2027  056A  1D03               	btfss	3,2
  2028  056B  2D6D               	goto	u2061
  2029  056C  2D6E               	goto	u2060
  2030  056D                     u2061:
  2031  056D  2D48               	goto	l2553
  2032  056E                     u2060:
  2033  056E                     l2559:
  2034                           
  2035                           ;C:\Program Files\Microchip\xc8\v2.35\pic\sources\c90\common\doprnt.c: 1448:   {;C:\Prog
      +                          ram Files\Microchip\xc8\v2.35\pic\sources\c90\common\doprnt.c: 1464:    if(flag & 0x03)
  2036  056E  0841               	movf	sprintf@flag,w
  2037  056F  3903               	andlw	3
  2038  0570  1903               	btfsc	3,2
  2039  0571  2D73               	goto	u2071
  2040  0572  2D74               	goto	u2070
  2041  0573                     u2071:
  2042  0573  2D7F               	goto	l2565
  2043  0574                     u2070:
  2044  0574                     l2561:
  2045                           
  2046                           ;C:\Program Files\Microchip\xc8\v2.35\pic\sources\c90\common\doprnt.c: 1465:     ((*sp++
      +                           = ('-')));
  2047  0574  302D               	movlw	45
  2048  0575  00BD               	movwf	??_sprintf
  2049  0576  0845               	movf	sprintf@sp,w
  2050  0577  0084               	movwf	4
  2051  0578  083D               	movf	??_sprintf,w
  2052  0579  1383               	bcf	3,7	;select IRP bank0
  2053  057A  0080               	movwf	0
  2054  057B                     l2563:
  2055  057B  3001               	movlw	1
  2056  057C  00BD               	movwf	??_sprintf
  2057  057D  083D               	movf	??_sprintf,w
  2058  057E  07C5               	addwf	sprintf@sp,f
  2059  057F                     l2565:
  2060                           
  2061                           ;C:\Program Files\Microchip\xc8\v2.35\pic\sources\c90\common\doprnt.c: 1495:   };C:\Prog
      +                          ram Files\Microchip\xc8\v2.35\pic\sources\c90\common\doprnt.c: 1498:   prec = c;
  2062  057F  0846               	movf	sprintf@c,w
  2063  0580  00BD               	movwf	??_sprintf
  2064  0581  083D               	movf	??_sprintf,w
  2065  0582  00C2               	movwf	sprintf@prec
  2066                           
  2067                           ;C:\Program Files\Microchip\xc8\v2.35\pic\sources\c90\common\doprnt.c: 1500:   while(pre
      +                          c--) {
  2068  0583  2DBF               	goto	l2573
  2069  0584                     l2567:
  2070                           
  2071                           ;C:\Program Files\Microchip\xc8\v2.35\pic\sources\c90\common\doprnt.c: 1504:    {;C:\Pro
      +                          gram Files\Microchip\xc8\v2.35\pic\sources\c90\common\doprnt.c: 1515:     c = (val / dpo
      +                          wers[(unsigned char)prec]) % 10 + '0';
  2072  0584  300A               	movlw	10
  2073  0585  00B4               	movwf	___lwmod@divisor
  2074  0586  3000               	movlw	0
  2075  0587  00B5               	movwf	___lwmod@divisor+1
  2076  0588  0842               	movf	sprintf@prec,w
  2077  0589  00BD               	movwf	??_sprintf
  2078  058A  073D               	addwf	??_sprintf,w
  2079  058B  3E01               	addlw	low ((_dpowers-__stringbase)| (0+32768))
  2080  058C  0084               	movwf	4
  2081  058D  120A  118A  240A  120A  118A  	fcall	stringdir
  2082  0592  00AC               	movwf	___lwdiv@divisor
  2083  0593  120A  118A  240A  120A  118A  	fcall	stringdir
  2084  0598  00AD               	movwf	___lwdiv@divisor+1
  2085  0599  0844               	movf	sprintf@val+1,w
  2086  059A  00AF               	movwf	___lwdiv@dividend+1
  2087  059B  0843               	movf	sprintf@val,w
  2088  059C  00AE               	movwf	___lwdiv@dividend
  2089  059D  120A  118A  274B  120A  118A  	fcall	___lwdiv
  2090  05A2  1283               	bcf	3,5	;RP0=0, select bank0
  2091  05A3  1303               	bcf	3,6	;RP1=0, select bank0
  2092  05A4  082D               	movf	?___lwdiv+1,w
  2093  05A5  00B7               	movwf	___lwmod@dividend+1
  2094  05A6  082C               	movf	?___lwdiv,w
  2095  05A7  00B6               	movwf	___lwmod@dividend
  2096  05A8  120A  118A  2791  120A  118A  	fcall	___lwmod
  2097  05AD  1283               	bcf	3,5	;RP0=0, select bank0
  2098  05AE  1303               	bcf	3,6	;RP1=0, select bank0
  2099  05AF  0834               	movf	?___lwmod,w
  2100  05B0  3E30               	addlw	48
  2101  05B1  00BE               	movwf	??_sprintf+1
  2102  05B2  083E               	movf	??_sprintf+1,w
  2103  05B3  00C6               	movwf	sprintf@c
  2104  05B4                     l2569:
  2105                           
  2106                           ;C:\Program Files\Microchip\xc8\v2.35\pic\sources\c90\common\doprnt.c: 1549:    };C:\Pro
      +                          gram Files\Microchip\xc8\v2.35\pic\sources\c90\common\doprnt.c: 1550:    ((*sp++ = (c)))
      +                          ;
  2107  05B4  0846               	movf	sprintf@c,w
  2108  05B5  00BD               	movwf	??_sprintf
  2109  05B6  0845               	movf	sprintf@sp,w
  2110  05B7  0084               	movwf	4
  2111  05B8  083D               	movf	??_sprintf,w
  2112  05B9  1383               	bcf	3,7	;select IRP bank0
  2113  05BA  0080               	movwf	0
  2114  05BB                     l2571:
  2115  05BB  3001               	movlw	1
  2116  05BC  00BD               	movwf	??_sprintf
  2117  05BD  083D               	movf	??_sprintf,w
  2118  05BE  07C5               	addwf	sprintf@sp,f
  2119  05BF                     l2573:
  2120                           
  2121                           ;C:\Program Files\Microchip\xc8\v2.35\pic\sources\c90\common\doprnt.c: 1500:   while(pre
      +                          c--) {
  2122  05BF  30FF               	movlw	255
  2123  05C0  00BD               	movwf	??_sprintf
  2124  05C1  083D               	movf	??_sprintf,w
  2125  05C2  07C2               	addwf	sprintf@prec,f
  2126  05C3  0A42               	incf	sprintf@prec,w
  2127  05C4  1D03               	btfss	3,2
  2128  05C5  2DC7               	goto	u2081
  2129  05C6  2DC8               	goto	u2080
  2130  05C7                     u2081:
  2131  05C7  2D84               	goto	l2567
  2132  05C8                     u2080:
  2133  05C8                     l2575:
  2134                           
  2135                           ;C:\Program Files\Microchip\xc8\v2.35\pic\sources\c90\common\doprnt.c: 553:  while((c = 
      +                          *f++)) {
  2136  05C8  3001               	movlw	1
  2137  05C9  07BA               	addwf	sprintf@f,f
  2138  05CA  30FF               	movlw	-1
  2139  05CB  073A               	addwf	sprintf@f,w
  2140  05CC  0084               	movwf	4
  2141  05CD  120A  118A  240A  120A  118A  	fcall	stringdir
  2142  05D2  00BD               	movwf	??_sprintf
  2143  05D3  083D               	movf	??_sprintf,w
  2144  05D4  00C6               	movwf	sprintf@c
  2145  05D5  0846               	movf	sprintf@c,w
  2146  05D6  1D03               	btfss	3,2
  2147  05D7  2DD9               	goto	u2091
  2148  05D8  2DDA               	goto	u2090
  2149  05D9                     u2091:
  2150  05D9  2CFD               	goto	l2525
  2151  05DA                     u2090:
  2152  05DA                     l2577:
  2153                           
  2154                           ;C:\Program Files\Microchip\xc8\v2.35\pic\sources\c90\common\doprnt.c: 1564:  *sp = 0;
  2155  05DA  0845               	movf	sprintf@sp,w
  2156  05DB  0084               	movwf	4
  2157  05DC  1383               	bcf	3,7	;select IRP bank0
  2158  05DD  0180               	clrf	0
  2159  05DE                     l415:
  2160  05DE  0008               	return
  2161  05DF                     __end_of_sprintf:
  2162                           
  2163                           	psect	text2
  2164  0791                     __ptext2:	
  2165 ;; *************** function ___lwmod *****************
  2166 ;; Defined at:
  2167 ;;		line 5 in file "C:\Program Files\Microchip\xc8\v2.35\pic\sources\c90\common\lwmod.c"
  2168 ;; Parameters:    Size  Location     Type
  2169 ;;  divisor         2   20[BANK0 ] unsigned int 
  2170 ;;  dividend        2   22[BANK0 ] unsigned int 
  2171 ;; Auto vars:     Size  Location     Type
  2172 ;;  counter         1   25[BANK0 ] unsigned char 
  2173 ;; Return value:  Size  Location     Type
  2174 ;;                  2   20[BANK0 ] unsigned int 
  2175 ;; Registers used:
  2176 ;;		wreg, status,2, status,0
  2177 ;; Tracked objects:
  2178 ;;		On entry : 0/0
  2179 ;;		On exit  : 0/0
  2180 ;;		Unchanged: 0/0
  2181 ;; Data sizes:     COMMON   BANK0   BANK1   BANK3   BANK2
  2182 ;;      Params:         0       4       0       0       0
  2183 ;;      Locals:         0       1       0       0       0
  2184 ;;      Temps:          0       1       0       0       0
  2185 ;;      Totals:         0       6       0       0       0
  2186 ;;Total ram usage:        6 bytes
  2187 ;; Hardware stack levels used: 1
  2188 ;; Hardware stack levels required when called: 3
  2189 ;; This function calls:
  2190 ;;		Nothing
  2191 ;; This function is called by:
  2192 ;;		_sprintf
  2193 ;; This function uses a non-reentrant model
  2194 ;;
  2195                           
  2196  0791                     ___lwmod:	
  2197                           ;psect for function ___lwmod
  2198                           
  2199  0791                     l2359:	
  2200                           ;incstack = 0
  2201                           ; Regs used in ___lwmod: [wreg+status,2+status,0]
  2202                           
  2203  0791  1283               	bcf	3,5	;RP0=0, select bank0
  2204  0792  1303               	bcf	3,6	;RP1=0, select bank0
  2205  0793  0834               	movf	___lwmod@divisor,w
  2206  0794  0435               	iorwf	___lwmod@divisor+1,w
  2207  0795  1903               	btfsc	3,2
  2208  0796  2F98               	goto	u1941
  2209  0797  2F99               	goto	u1940
  2210  0798                     u1941:
  2211  0798  2FC8               	goto	l2377
  2212  0799                     u1940:
  2213  0799                     l2361:
  2214  0799  01B9               	clrf	___lwmod@counter
  2215  079A  0AB9               	incf	___lwmod@counter,f
  2216  079B  2FA7               	goto	l2367
  2217  079C                     l2363:
  2218  079C  3001               	movlw	1
  2219  079D                     u1955:
  2220  079D  1003               	clrc
  2221  079E  0DB4               	rlf	___lwmod@divisor,f
  2222  079F  0DB5               	rlf	___lwmod@divisor+1,f
  2223  07A0  3EFF               	addlw	-1
  2224  07A1  1D03               	skipz
  2225  07A2  2F9D               	goto	u1955
  2226  07A3                     l2365:
  2227  07A3  3001               	movlw	1
  2228  07A4  00B8               	movwf	??___lwmod
  2229  07A5  0838               	movf	??___lwmod,w
  2230  07A6  07B9               	addwf	___lwmod@counter,f
  2231  07A7                     l2367:
  2232  07A7  1FB5               	btfss	___lwmod@divisor+1,7
  2233  07A8  2FAA               	goto	u1961
  2234  07A9  2FAB               	goto	u1960
  2235  07AA                     u1961:
  2236  07AA  2F9C               	goto	l2363
  2237  07AB                     u1960:
  2238  07AB                     l2369:
  2239  07AB  0835               	movf	___lwmod@divisor+1,w
  2240  07AC  0237               	subwf	___lwmod@dividend+1,w
  2241  07AD  1D03               	skipz
  2242  07AE  2FB1               	goto	u1975
  2243  07AF  0834               	movf	___lwmod@divisor,w
  2244  07B0  0236               	subwf	___lwmod@dividend,w
  2245  07B1                     u1975:
  2246  07B1  1C03               	skipc
  2247  07B2  2FB4               	goto	u1971
  2248  07B3  2FB5               	goto	u1970
  2249  07B4                     u1971:
  2250  07B4  2FBB               	goto	l2373
  2251  07B5                     u1970:
  2252  07B5                     l2371:
  2253  07B5  0834               	movf	___lwmod@divisor,w
  2254  07B6  02B6               	subwf	___lwmod@dividend,f
  2255  07B7  0835               	movf	___lwmod@divisor+1,w
  2256  07B8  1C03               	skipc
  2257  07B9  03B7               	decf	___lwmod@dividend+1,f
  2258  07BA  02B7               	subwf	___lwmod@dividend+1,f
  2259  07BB                     l2373:
  2260  07BB  3001               	movlw	1
  2261  07BC                     u1985:
  2262  07BC  1003               	clrc
  2263  07BD  0CB5               	rrf	___lwmod@divisor+1,f
  2264  07BE  0CB4               	rrf	___lwmod@divisor,f
  2265  07BF  3EFF               	addlw	-1
  2266  07C0  1D03               	skipz
  2267  07C1  2FBC               	goto	u1985
  2268  07C2                     l2375:
  2269  07C2  3001               	movlw	1
  2270  07C3  02B9               	subwf	___lwmod@counter,f
  2271  07C4  1D03               	btfss	3,2
  2272  07C5  2FC7               	goto	u1991
  2273  07C6  2FC8               	goto	u1990
  2274  07C7                     u1991:
  2275  07C7  2FAB               	goto	l2369
  2276  07C8                     u1990:
  2277  07C8                     l2377:
  2278  07C8  0837               	movf	___lwmod@dividend+1,w
  2279  07C9  00B5               	movwf	?___lwmod+1
  2280  07CA  0836               	movf	___lwmod@dividend,w
  2281  07CB  00B4               	movwf	?___lwmod
  2282  07CC                     l701:
  2283  07CC  0008               	return
  2284  07CD                     __end_of___lwmod:
  2285                           
  2286                           	psect	text3
  2287  074B                     __ptext3:	
  2288 ;; *************** function ___lwdiv *****************
  2289 ;; Defined at:
  2290 ;;		line 5 in file "C:\Program Files\Microchip\xc8\v2.35\pic\sources\c90\common\lwdiv.c"
  2291 ;; Parameters:    Size  Location     Type
  2292 ;;  divisor         2   12[BANK0 ] unsigned int 
  2293 ;;  dividend        2   14[BANK0 ] unsigned int 
  2294 ;; Auto vars:     Size  Location     Type
  2295 ;;  quotient        2   18[BANK0 ] unsigned int 
  2296 ;;  counter         1   17[BANK0 ] unsigned char 
  2297 ;; Return value:  Size  Location     Type
  2298 ;;                  2   12[BANK0 ] unsigned int 
  2299 ;; Registers used:
  2300 ;;		wreg, status,2, status,0
  2301 ;; Tracked objects:
  2302 ;;		On entry : 0/0
  2303 ;;		On exit  : 0/0
  2304 ;;		Unchanged: 0/0
  2305 ;; Data sizes:     COMMON   BANK0   BANK1   BANK3   BANK2
  2306 ;;      Params:         0       4       0       0       0
  2307 ;;      Locals:         0       3       0       0       0
  2308 ;;      Temps:          0       1       0       0       0
  2309 ;;      Totals:         0       8       0       0       0
  2310 ;;Total ram usage:        8 bytes
  2311 ;; Hardware stack levels used: 1
  2312 ;; Hardware stack levels required when called: 3
  2313 ;; This function calls:
  2314 ;;		Nothing
  2315 ;; This function is called by:
  2316 ;;		_sprintf
  2317 ;; This function uses a non-reentrant model
  2318 ;;
  2319                           
  2320  074B                     ___lwdiv:	
  2321                           ;psect for function ___lwdiv
  2322                           
  2323  074B                     l2333:	
  2324                           ;incstack = 0
  2325                           ; Regs used in ___lwdiv: [wreg+status,2+status,0]
  2326                           
  2327  074B  1283               	bcf	3,5	;RP0=0, select bank0
  2328  074C  1303               	bcf	3,6	;RP1=0, select bank0
  2329  074D  01B2               	clrf	___lwdiv@quotient
  2330  074E  01B3               	clrf	___lwdiv@quotient+1
  2331  074F                     l2335:
  2332  074F  082C               	movf	___lwdiv@divisor,w
  2333  0750  042D               	iorwf	___lwdiv@divisor+1,w
  2334  0751  1903               	btfsc	3,2
  2335  0752  2F54               	goto	u1871
  2336  0753  2F55               	goto	u1870
  2337  0754                     u1871:
  2338  0754  2F8C               	goto	l2355
  2339  0755                     u1870:
  2340  0755                     l2337:
  2341  0755  01B1               	clrf	___lwdiv@counter
  2342  0756  0AB1               	incf	___lwdiv@counter,f
  2343  0757  2F63               	goto	l2343
  2344  0758                     l2339:
  2345  0758  3001               	movlw	1
  2346  0759                     u1885:
  2347  0759  1003               	clrc
  2348  075A  0DAC               	rlf	___lwdiv@divisor,f
  2349  075B  0DAD               	rlf	___lwdiv@divisor+1,f
  2350  075C  3EFF               	addlw	-1
  2351  075D  1D03               	skipz
  2352  075E  2F59               	goto	u1885
  2353  075F                     l2341:
  2354  075F  3001               	movlw	1
  2355  0760  00B0               	movwf	??___lwdiv
  2356  0761  0830               	movf	??___lwdiv,w
  2357  0762  07B1               	addwf	___lwdiv@counter,f
  2358  0763                     l2343:
  2359  0763  1FAD               	btfss	___lwdiv@divisor+1,7
  2360  0764  2F66               	goto	u1891
  2361  0765  2F67               	goto	u1890
  2362  0766                     u1891:
  2363  0766  2F58               	goto	l2339
  2364  0767                     u1890:
  2365  0767                     l2345:
  2366  0767  3001               	movlw	1
  2367  0768                     u1905:
  2368  0768  1003               	clrc
  2369  0769  0DB2               	rlf	___lwdiv@quotient,f
  2370  076A  0DB3               	rlf	___lwdiv@quotient+1,f
  2371  076B  3EFF               	addlw	-1
  2372  076C  1D03               	skipz
  2373  076D  2F68               	goto	u1905
  2374  076E  082D               	movf	___lwdiv@divisor+1,w
  2375  076F  022F               	subwf	___lwdiv@dividend+1,w
  2376  0770  1D03               	skipz
  2377  0771  2F74               	goto	u1915
  2378  0772  082C               	movf	___lwdiv@divisor,w
  2379  0773  022E               	subwf	___lwdiv@dividend,w
  2380  0774                     u1915:
  2381  0774  1C03               	skipc
  2382  0775  2F77               	goto	u1911
  2383  0776  2F78               	goto	u1910
  2384  0777                     u1911:
  2385  0777  2F7F               	goto	l2351
  2386  0778                     u1910:
  2387  0778                     l2347:
  2388  0778  082C               	movf	___lwdiv@divisor,w
  2389  0779  02AE               	subwf	___lwdiv@dividend,f
  2390  077A  082D               	movf	___lwdiv@divisor+1,w
  2391  077B  1C03               	skipc
  2392  077C  03AF               	decf	___lwdiv@dividend+1,f
  2393  077D  02AF               	subwf	___lwdiv@dividend+1,f
  2394  077E                     l2349:
  2395  077E  1432               	bsf	___lwdiv@quotient,0
  2396  077F                     l2351:
  2397  077F  3001               	movlw	1
  2398  0780                     u1925:
  2399  0780  1003               	clrc
  2400  0781  0CAD               	rrf	___lwdiv@divisor+1,f
  2401  0782  0CAC               	rrf	___lwdiv@divisor,f
  2402  0783  3EFF               	addlw	-1
  2403  0784  1D03               	skipz
  2404  0785  2F80               	goto	u1925
  2405  0786                     l2353:
  2406  0786  3001               	movlw	1
  2407  0787  02B1               	subwf	___lwdiv@counter,f
  2408  0788  1D03               	btfss	3,2
  2409  0789  2F8B               	goto	u1931
  2410  078A  2F8C               	goto	u1930
  2411  078B                     u1931:
  2412  078B  2F67               	goto	l2345
  2413  078C                     u1930:
  2414  078C                     l2355:
  2415  078C  0833               	movf	___lwdiv@quotient+1,w
  2416  078D  00AD               	movwf	?___lwdiv+1
  2417  078E  0832               	movf	___lwdiv@quotient,w
  2418  078F  00AC               	movwf	?___lwdiv
  2419  0790                     l691:
  2420  0790  0008               	return
  2421  0791                     __end_of___lwdiv:
  2422                           
  2423                           	psect	text4
  2424  0F35                     __ptext4:	
  2425 ;; *************** function _setup_UART *****************
  2426 ;; Defined at:
  2427 ;;		line 681 in file "PROYECTO_02.c"
  2428 ;; Parameters:    Size  Location     Type
  2429 ;;		None
  2430 ;; Auto vars:     Size  Location     Type
  2431 ;;		None
  2432 ;; Return value:  Size  Location     Type
  2433 ;;                  1    wreg      void 
  2434 ;; Registers used:
  2435 ;;		wreg, status,2
  2436 ;; Tracked objects:
  2437 ;;		On entry : 0/0
  2438 ;;		On exit  : 0/0
  2439 ;;		Unchanged: 0/0
  2440 ;; Data sizes:     COMMON   BANK0   BANK1   BANK3   BANK2
  2441 ;;      Params:         0       0       0       0       0
  2442 ;;      Locals:         0       0       0       0       0
  2443 ;;      Temps:          0       0       0       0       0
  2444 ;;      Totals:         0       0       0       0       0
  2445 ;;Total ram usage:        0 bytes
  2446 ;; Hardware stack levels used: 1
  2447 ;; Hardware stack levels required when called: 3
  2448 ;; This function calls:
  2449 ;;		Nothing
  2450 ;; This function is called by:
  2451 ;;		_main
  2452 ;; This function uses a non-reentrant model
  2453 ;;
  2454                           
  2455  0F35                     _setup_UART:	
  2456                           ;psect for function _setup_UART
  2457                           
  2458  0F35                     l2493:	
  2459                           ;incstack = 0
  2460                           ; Regs used in _setup_UART: [wreg+status,2]
  2461                           
  2462                           
  2463                           ;PROYECTO_02.c: 682:     TXSTAbits.SYNC = 0;
  2464  0F35  1683               	bsf	3,5	;RP0=1, select bank1
  2465  0F36  1303               	bcf	3,6	;RP1=0, select bank1
  2466  0F37  1218               	bcf	24,4	;volatile
  2467                           
  2468                           ;PROYECTO_02.c: 683:     TXSTAbits.BRGH = 1;
  2469  0F38  1518               	bsf	24,2	;volatile
  2470                           
  2471                           ;PROYECTO_02.c: 684:     BAUDCTLbits.BRG16 = 0;
  2472  0F39  1683               	bsf	3,5	;RP0=1, select bank3
  2473  0F3A  1703               	bsf	3,6	;RP1=1, select bank3
  2474  0F3B  1187               	bcf	7,3	;volatile
  2475  0F3C                     l2495:
  2476                           
  2477                           ;PROYECTO_02.c: 686:     SPBRG = 25;
  2478  0F3C  3019               	movlw	25
  2479  0F3D  1683               	bsf	3,5	;RP0=1, select bank1
  2480  0F3E  1303               	bcf	3,6	;RP1=0, select bank1
  2481  0F3F  0099               	movwf	25	;volatile
  2482  0F40                     l2497:
  2483                           
  2484                           ;PROYECTO_02.c: 687:     SPBRGH = 0;
  2485  0F40  019A               	clrf	26	;volatile
  2486  0F41                     l2499:
  2487                           
  2488                           ;PROYECTO_02.c: 689:     RCSTAbits.SPEN = 1;
  2489  0F41  1283               	bcf	3,5	;RP0=0, select bank0
  2490  0F42  1303               	bcf	3,6	;RP1=0, select bank0
  2491  0F43  1798               	bsf	24,7	;volatile
  2492  0F44                     l2501:
  2493                           
  2494                           ;PROYECTO_02.c: 690:     TXSTAbits.TX9 = 0;
  2495  0F44  1683               	bsf	3,5	;RP0=1, select bank1
  2496  0F45  1303               	bcf	3,6	;RP1=0, select bank1
  2497  0F46  1318               	bcf	24,6	;volatile
  2498  0F47                     l2503:
  2499                           
  2500                           ;PROYECTO_02.c: 691:     TXSTAbits.TXEN = 1;
  2501  0F47  1698               	bsf	24,5	;volatile
  2502  0F48                     l2505:
  2503                           
  2504                           ;PROYECTO_02.c: 692:     RCSTAbits.CREN = 1;
  2505  0F48  1283               	bcf	3,5	;RP0=0, select bank0
  2506  0F49  1303               	bcf	3,6	;RP1=0, select bank0
  2507  0F4A  1618               	bsf	24,4	;volatile
  2508  0F4B                     l2507:
  2509                           
  2510                           ;PROYECTO_02.c: 694:     PIE1bits.RCIE = 1;
  2511  0F4B  1683               	bsf	3,5	;RP0=1, select bank1
  2512  0F4C  1303               	bcf	3,6	;RP1=0, select bank1
  2513  0F4D  168C               	bsf	12,5	;volatile
  2514  0F4E                     l2509:
  2515                           
  2516                           ;PROYECTO_02.c: 695:     PIR1bits.RCIF = 0;
  2517  0F4E  1283               	bcf	3,5	;RP0=0, select bank0
  2518  0F4F  1303               	bcf	3,6	;RP1=0, select bank0
  2519  0F50  128C               	bcf	12,5	;volatile
  2520  0F51                     l2511:
  2521                           
  2522                           ;PROYECTO_02.c: 697:     INTCONbits.PEIE = 1;
  2523  0F51  170B               	bsf	11,6	;volatile
  2524  0F52                     l285:
  2525  0F52  0008               	return
  2526  0F53                     __end_of_setup_UART:
  2527                           
  2528                           	psect	text5
  2529  0EE7                     __ptext5:	
  2530 ;; *************** function _setupTMR2 *****************
  2531 ;; Defined at:
  2532 ;;		line 655 in file "PROYECTO_02.c"
  2533 ;; Parameters:    Size  Location     Type
  2534 ;;		None
  2535 ;; Auto vars:     Size  Location     Type
  2536 ;;		None
  2537 ;; Return value:  Size  Location     Type
  2538 ;;                  1    wreg      void 
  2539 ;; Registers used:
  2540 ;;		wreg, status,2, status,0
  2541 ;; Tracked objects:
  2542 ;;		On entry : 0/0
  2543 ;;		On exit  : 0/0
  2544 ;;		Unchanged: 0/0
  2545 ;; Data sizes:     COMMON   BANK0   BANK1   BANK3   BANK2
  2546 ;;      Params:         0       0       0       0       0
  2547 ;;      Locals:         0       0       0       0       0
  2548 ;;      Temps:          0       0       0       0       0
  2549 ;;      Totals:         0       0       0       0       0
  2550 ;;Total ram usage:        0 bytes
  2551 ;; Hardware stack levels used: 1
  2552 ;; Hardware stack levels required when called: 3
  2553 ;; This function calls:
  2554 ;;		Nothing
  2555 ;; This function is called by:
  2556 ;;		_main
  2557 ;; This function uses a non-reentrant model
  2558 ;;
  2559                           
  2560  0EE7                     _setupTMR2:	
  2561                           ;psect for function _setupTMR2
  2562                           
  2563  0EE7                     l2463:	
  2564                           ;incstack = 0
  2565                           ; Regs used in _setupTMR2: [wreg+status,2+status,0]
  2566                           
  2567                           
  2568                           ;PROYECTO_02.c: 657:     PIR1bits.TMR2IF = 0;
  2569  0EE7  1283               	bcf	3,5	;RP0=0, select bank0
  2570  0EE8  1303               	bcf	3,6	;RP1=0, select bank0
  2571  0EE9  108C               	bcf	12,1	;volatile
  2572  0EEA                     l2465:
  2573                           
  2574                           ;PROYECTO_02.c: 658:     T2CONbits.T2CKPS = 0b11;
  2575  0EEA  3003               	movlw	3
  2576  0EEB  0492               	iorwf	18,f	;volatile
  2577  0EEC                     l2467:
  2578                           
  2579                           ;PROYECTO_02.c: 659:     T2CONbits.TMR2ON = 1;
  2580  0EEC  1512               	bsf	18,2	;volatile
  2581  0EED                     l276:	
  2582                           ;PROYECTO_02.c: 660:     while(PIR1bits.TMR2IF == 0);
  2583                           
  2584  0EED  1C8C               	btfss	12,1	;volatile
  2585  0EEE  2EF0               	goto	u2011
  2586  0EEF  2EF1               	goto	u2010
  2587  0EF0                     u2011:
  2588  0EF0  2EED               	goto	l276
  2589  0EF1                     u2010:
  2590  0EF1                     l278:
  2591                           
  2592                           ;PROYECTO_02.c: 661:     PIR1bits.TMR2IF = 0;
  2593  0EF1  108C               	bcf	12,1	;volatile
  2594  0EF2                     l279:
  2595  0EF2  0008               	return
  2596  0EF3                     __end_of_setupTMR2:
  2597                           
  2598                           	psect	text6
  2599  0F00                     __ptext6:	
  2600 ;; *************** function _setupTMR0 *****************
  2601 ;; Defined at:
  2602 ;;		line 669 in file "PROYECTO_02.c"
  2603 ;; Parameters:    Size  Location     Type
  2604 ;;		None
  2605 ;; Auto vars:     Size  Location     Type
  2606 ;;		None
  2607 ;; Return value:  Size  Location     Type
  2608 ;;                  1    wreg      void 
  2609 ;; Registers used:
  2610 ;;		wreg, status,2, status,0
  2611 ;; Tracked objects:
  2612 ;;		On entry : 0/0
  2613 ;;		On exit  : 0/0
  2614 ;;		Unchanged: 0/0
  2615 ;; Data sizes:     COMMON   BANK0   BANK1   BANK3   BANK2
  2616 ;;      Params:         0       0       0       0       0
  2617 ;;      Locals:         0       0       0       0       0
  2618 ;;      Temps:          0       0       0       0       0
  2619 ;;      Totals:         0       0       0       0       0
  2620 ;;Total ram usage:        0 bytes
  2621 ;; Hardware stack levels used: 1
  2622 ;; Hardware stack levels required when called: 3
  2623 ;; This function calls:
  2624 ;;		Nothing
  2625 ;; This function is called by:
  2626 ;;		_main
  2627 ;; This function uses a non-reentrant model
  2628 ;;
  2629                           
  2630  0F00                     _setupTMR0:	
  2631                           ;psect for function _setupTMR0
  2632                           
  2633  0F00                     l2457:	
  2634                           ;incstack = 0
  2635                           ; Regs used in _setupTMR0: [wreg+status,2+status,0]
  2636                           
  2637                           
  2638                           ;PROYECTO_02.c: 671:     OPTION_REGbits.T0CS = 0;
  2639  0F00  1683               	bsf	3,5	;RP0=1, select bank1
  2640  0F01  1303               	bcf	3,6	;RP1=0, select bank1
  2641  0F02  1281               	bcf	1,5	;volatile
  2642                           
  2643                           ;PROYECTO_02.c: 672:     OPTION_REGbits.PSA = 0;
  2644  0F03  1181               	bcf	1,3	;volatile
  2645  0F04                     l2459:
  2646                           
  2647                           ;PROYECTO_02.c: 673:     OPTION_REGbits.PS = 0b100;
  2648  0F04  0801               	movf	1,w	;volatile
  2649  0F05  39F8               	andlw	-8
  2650  0F06  3804               	iorlw	4
  2651  0F07  0081               	movwf	1	;volatile
  2652  0F08                     l2461:
  2653                           
  2654                           ;PROYECTO_02.c: 674:     TMR0 = 256 - (4000000 / 4 / 1000 / 256);
  2655  0F08  30FD               	movlw	253
  2656  0F09  1283               	bcf	3,5	;RP0=0, select bank0
  2657  0F0A  1303               	bcf	3,6	;RP1=0, select bank0
  2658  0F0B  0081               	movwf	1	;volatile
  2659  0F0C                     l282:
  2660  0F0C  0008               	return
  2661  0F0D                     __end_of_setupTMR0:
  2662                           
  2663                           	psect	text7
  2664  03DE                     __ptext7:	
  2665 ;; *************** function _setupPWM *****************
  2666 ;; Defined at:
  2667 ;;		line 619 in file "PROYECTO_02.c"
  2668 ;; Parameters:    Size  Location     Type
  2669 ;;		None
  2670 ;; Auto vars:     Size  Location     Type
  2671 ;;		None
  2672 ;; Return value:  Size  Location     Type
  2673 ;;                  1    wreg      void 
  2674 ;; Registers used:
  2675 ;;		wreg, status,2, status,0
  2676 ;; Tracked objects:
  2677 ;;		On entry : 0/0
  2678 ;;		On exit  : 0/0
  2679 ;;		Unchanged: 0/0
  2680 ;; Data sizes:     COMMON   BANK0   BANK1   BANK3   BANK2
  2681 ;;      Params:         0       0       0       0       0
  2682 ;;      Locals:         0       0       0       0       0
  2683 ;;      Temps:          0       0       0       0       0
  2684 ;;      Totals:         0       0       0       0       0
  2685 ;;Total ram usage:        0 bytes
  2686 ;; Hardware stack levels used: 1
  2687 ;; Hardware stack levels required when called: 3
  2688 ;; This function calls:
  2689 ;;		Nothing
  2690 ;; This function is called by:
  2691 ;;		_main
  2692 ;; This function uses a non-reentrant model
  2693 ;;
  2694                           
  2695  03DE                     _setupPWM:	
  2696                           ;psect for function _setupPWM
  2697                           
  2698  03DE                     l2469:	
  2699                           ;incstack = 0
  2700                           ; Regs used in _setupPWM: [wreg+status,2+status,0]
  2701                           
  2702                           
  2703                           ;PROYECTO_02.c: 623:     TRISCbits.TRISC2 = 1;
  2704  03DE  1683               	bsf	3,5	;RP0=1, select bank1
  2705  03DF  1303               	bcf	3,6	;RP1=0, select bank1
  2706  03E0  1507               	bsf	7,2	;volatile
  2707                           
  2708                           ;PROYECTO_02.c: 624:     TRISCbits.TRISC1 = 1;
  2709  03E1  1487               	bsf	7,1	;volatile
  2710  03E2                     l2471:
  2711                           
  2712                           ;PROYECTO_02.c: 628:     PR2 = 249;
  2713  03E2  30F9               	movlw	249
  2714  03E3  0092               	movwf	18	;volatile
  2715  03E4                     l2473:
  2716                           
  2717                           ;PROYECTO_02.c: 632:     CCP1CONbits.P1M = 0;
  2718  03E4  303F               	movlw	-193
  2719  03E5  1283               	bcf	3,5	;RP0=0, select bank0
  2720  03E6  1303               	bcf	3,6	;RP1=0, select bank0
  2721  03E7  0597               	andwf	23,f	;volatile
  2722  03E8                     l2475:
  2723                           
  2724                           ;PROYECTO_02.c: 633:     CCP1CONbits.CCP1M = 0b1100;
  2725  03E8  0817               	movf	23,w	;volatile
  2726  03E9  39F0               	andlw	-16
  2727  03EA  380C               	iorlw	12
  2728  03EB  0097               	movwf	23	;volatile
  2729  03EC                     l2477:
  2730                           
  2731                           ;PROYECTO_02.c: 634:     CCP2CONbits.CCP2M = 0b1100;
  2732  03EC  081D               	movf	29,w	;volatile
  2733  03ED  39F0               	andlw	-16
  2734  03EE  380C               	iorlw	12
  2735  03EF  009D               	movwf	29	;volatile
  2736  03F0                     l2479:
  2737                           
  2738                           ;PROYECTO_02.c: 638:     CCPR1L = 0b00011110;
  2739  03F0  301E               	movlw	30
  2740  03F1  0095               	movwf	21	;volatile
  2741  03F2                     l2481:
  2742                           
  2743                           ;PROYECTO_02.c: 639:     CCPR2L = 0b00011110;
  2744  03F2  301E               	movlw	30
  2745  03F3  009B               	movwf	27	;volatile
  2746  03F4                     l2483:
  2747                           
  2748                           ;PROYECTO_02.c: 640:     CCP1CONbits.DC1B = 0;
  2749  03F4  30CF               	movlw	-49
  2750  03F5  0597               	andwf	23,f	;volatile
  2751  03F6                     l2485:
  2752                           
  2753                           ;PROYECTO_02.c: 641:     CCP2CONbits.DC2B0 = 0;
  2754  03F6  121D               	bcf	29,4	;volatile
  2755  03F7                     l2487:
  2756                           
  2757                           ;PROYECTO_02.c: 642:     CCP2CONbits.DC2B1 = 0;
  2758  03F7  129D               	bcf	29,5	;volatile
  2759  03F8                     l2489:
  2760                           
  2761                           ;PROYECTO_02.c: 646:     TRISCbits.TRISC2 = 0;
  2762  03F8  1683               	bsf	3,5	;RP0=1, select bank1
  2763  03F9  1303               	bcf	3,6	;RP1=0, select bank1
  2764  03FA  1107               	bcf	7,2	;volatile
  2765  03FB                     l2491:
  2766                           
  2767                           ;PROYECTO_02.c: 647:     TRISCbits.TRISC1 = 0;
  2768  03FB  1087               	bcf	7,1	;volatile
  2769  03FC                     l273:
  2770  03FC  0008               	return
  2771  03FD                     __end_of_setupPWM:
  2772                           
  2773                           	psect	text8
  2774  0F1F                     __ptext8:	
  2775 ;; *************** function _setupADC *****************
  2776 ;; Defined at:
  2777 ;;		line 591 in file "PROYECTO_02.c"
  2778 ;; Parameters:    Size  Location     Type
  2779 ;;		None
  2780 ;; Auto vars:     Size  Location     Type
  2781 ;;		None
  2782 ;; Return value:  Size  Location     Type
  2783 ;;                  1    wreg      void 
  2784 ;; Registers used:
  2785 ;;		wreg, status,2, status,0
  2786 ;; Tracked objects:
  2787 ;;		On entry : 0/0
  2788 ;;		On exit  : 0/0
  2789 ;;		Unchanged: 0/0
  2790 ;; Data sizes:     COMMON   BANK0   BANK1   BANK3   BANK2
  2791 ;;      Params:         0       0       0       0       0
  2792 ;;      Locals:         0       0       0       0       0
  2793 ;;      Temps:          0       1       0       0       0
  2794 ;;      Totals:         0       1       0       0       0
  2795 ;;Total ram usage:        1 bytes
  2796 ;; Hardware stack levels used: 1
  2797 ;; Hardware stack levels required when called: 3
  2798 ;; This function calls:
  2799 ;;		Nothing
  2800 ;; This function is called by:
  2801 ;;		_main
  2802 ;; This function uses a non-reentrant model
  2803 ;;
  2804                           
  2805  0F1F                     _setupADC:	
  2806                           ;psect for function _setupADC
  2807                           
  2808  0F1F                     l2449:	
  2809                           ;incstack = 0
  2810                           ; Regs used in _setupADC: [wreg+status,2+status,0]
  2811                           
  2812                           
  2813                           ;PROYECTO_02.c: 595:     ADCON0bits.ADCS1 = 0;
  2814  0F1F  1283               	bcf	3,5	;RP0=0, select bank0
  2815  0F20  1303               	bcf	3,6	;RP1=0, select bank0
  2816  0F21  139F               	bcf	31,7	;volatile
  2817                           
  2818                           ;PROYECTO_02.c: 596:     ADCON0bits.ADCS0 = 1;
  2819  0F22  171F               	bsf	31,6	;volatile
  2820                           
  2821                           ;PROYECTO_02.c: 600:     ADCON1bits.VCFG0 = 0;
  2822  0F23  1683               	bsf	3,5	;RP0=1, select bank1
  2823  0F24  1303               	bcf	3,6	;RP1=0, select bank1
  2824  0F25  121F               	bcf	31,4	;volatile
  2825                           
  2826                           ;PROYECTO_02.c: 601:     ADCON1bits.VCFG1 = 0;
  2827  0F26  129F               	bcf	31,5	;volatile
  2828                           
  2829                           ;PROYECTO_02.c: 603:     ADCON1bits.ADFM = 0;
  2830  0F27  139F               	bcf	31,7	;volatile
  2831  0F28                     l2451:
  2832                           
  2833                           ;PROYECTO_02.c: 607:     ADCON0bits.CHS = 0b0000;
  2834  0F28  30C3               	movlw	-61
  2835  0F29  1283               	bcf	3,5	;RP0=0, select bank0
  2836  0F2A  1303               	bcf	3,6	;RP1=0, select bank0
  2837  0F2B  059F               	andwf	31,f	;volatile
  2838  0F2C                     l2453:
  2839                           
  2840                           ;PROYECTO_02.c: 610:     ADCON0bits.ADON = 1;
  2841  0F2C  141F               	bsf	31,0	;volatile
  2842  0F2D                     l2455:
  2843                           
  2844                           ;PROYECTO_02.c: 611:     _delay((unsigned long)((100)*(4000000/4000000.0)));
  2845  0F2D  3020               	movlw	32
  2846  0F2E  1283               	bcf	3,5	;RP0=0, select bank0
  2847  0F2F  1303               	bcf	3,6	;RP1=0, select bank0
  2848  0F30  00AC               	movwf	??_setupADC
  2849  0F31                     u2247:
  2850  0F31  0BAC               	decfsz	??_setupADC,f
  2851  0F32  2F31               	goto	u2247
  2852  0F33  0000               	nop
  2853  0F34                     l270:
  2854  0F34  0008               	return
  2855  0F35                     __end_of_setupADC:
  2856                           
  2857                           	psect	text9
  2858  07CD                     __ptext9:	
  2859 ;; *************** function _setup *****************
  2860 ;; Defined at:
  2861 ;;		line 545 in file "PROYECTO_02.c"
  2862 ;; Parameters:    Size  Location     Type
  2863 ;;		None
  2864 ;; Auto vars:     Size  Location     Type
  2865 ;;		None
  2866 ;; Return value:  Size  Location     Type
  2867 ;;                  1    wreg      void 
  2868 ;; Registers used:
  2869 ;;		wreg, status,2, status,0
  2870 ;; Tracked objects:
  2871 ;;		On entry : 0/0
  2872 ;;		On exit  : 0/0
  2873 ;;		Unchanged: 0/0
  2874 ;; Data sizes:     COMMON   BANK0   BANK1   BANK3   BANK2
  2875 ;;      Params:         0       0       0       0       0
  2876 ;;      Locals:         0       0       0       0       0
  2877 ;;      Temps:          0       0       0       0       0
  2878 ;;      Totals:         0       0       0       0       0
  2879 ;;Total ram usage:        0 bytes
  2880 ;; Hardware stack levels used: 1
  2881 ;; Hardware stack levels required when called: 3
  2882 ;; This function calls:
  2883 ;;		Nothing
  2884 ;; This function is called by:
  2885 ;;		_main
  2886 ;; This function uses a non-reentrant model
  2887 ;;
  2888                           
  2889  07CD                     _setup:	
  2890                           ;psect for function _setup
  2891                           
  2892  07CD                     l2401:	
  2893                           ;incstack = 0
  2894                           ; Regs used in _setup: [wreg+status,2+status,0]
  2895                           
  2896                           
  2897                           ;PROYECTO_02.c: 547:     ANSEL = 0b00011111;
  2898  07CD  301F               	movlw	31
  2899  07CE  1683               	bsf	3,5	;RP0=1, select bank3
  2900  07CF  1703               	bsf	3,6	;RP1=1, select bank3
  2901  07D0  0088               	movwf	8	;volatile
  2902  07D1                     l2403:
  2903                           
  2904                           ;PROYECTO_02.c: 548:     ANSELH = 0;
  2905  07D1  0189               	clrf	9	;volatile
  2906  07D2                     l2405:
  2907                           
  2908                           ;PROYECTO_02.c: 550:     TRISA = 0b00011111;
  2909  07D2  301F               	movlw	31
  2910  07D3  1683               	bsf	3,5	;RP0=1, select bank1
  2911  07D4  1303               	bcf	3,6	;RP1=0, select bank1
  2912  07D5  0085               	movwf	5	;volatile
  2913  07D6                     l2407:
  2914                           
  2915                           ;PROYECTO_02.c: 551:     TRISC = 0b10000000;
  2916  07D6  3080               	movlw	128
  2917  07D7  0087               	movwf	7	;volatile
  2918  07D8                     l2409:
  2919                           
  2920                           ;PROYECTO_02.c: 552:     TRISD = 0;
  2921  07D8  0188               	clrf	8	;volatile
  2922                           
  2923                           ;PROYECTO_02.c: 553:     TRISB = 0b00001111;
  2924  07D9  300F               	movlw	15
  2925  07DA  0086               	movwf	6	;volatile
  2926  07DB                     l2411:
  2927                           
  2928                           ;PROYECTO_02.c: 555:     PORTA = 0;
  2929  07DB  1283               	bcf	3,5	;RP0=0, select bank0
  2930  07DC  1303               	bcf	3,6	;RP1=0, select bank0
  2931  07DD  0185               	clrf	5	;volatile
  2932  07DE                     l2413:
  2933                           
  2934                           ;PROYECTO_02.c: 556:     PORTC = 0;
  2935  07DE  0187               	clrf	7	;volatile
  2936  07DF                     l2415:
  2937                           
  2938                           ;PROYECTO_02.c: 557:     PORTD = 0;
  2939  07DF  0188               	clrf	8	;volatile
  2940  07E0                     l2417:
  2941                           
  2942                           ;PROYECTO_02.c: 558:     PORTB = 0;
  2943  07E0  0186               	clrf	6	;volatile
  2944  07E1                     l2419:
  2945                           
  2946                           ;PROYECTO_02.c: 563:     OSCCONbits.IRCF = 0b0110 ;
  2947  07E1  1683               	bsf	3,5	;RP0=1, select bank1
  2948  07E2  1303               	bcf	3,6	;RP1=0, select bank1
  2949  07E3  080F               	movf	15,w	;volatile
  2950  07E4  398F               	andlw	-113
  2951  07E5  3860               	iorlw	96
  2952  07E6  008F               	movwf	15	;volatile
  2953  07E7                     l2421:
  2954                           
  2955                           ;PROYECTO_02.c: 564:     OSCCONbits.SCS = 1;
  2956  07E7  140F               	bsf	15,0	;volatile
  2957  07E8                     l2423:
  2958                           
  2959                           ;PROYECTO_02.c: 568:     OPTION_REGbits.nRBPU = 0;
  2960  07E8  1381               	bcf	1,7	;volatile
  2961  07E9                     l2425:
  2962                           
  2963                           ;PROYECTO_02.c: 570:     IOCBbits.IOCB0 = 1;
  2964  07E9  1416               	bsf	22,0	;volatile
  2965  07EA                     l2427:
  2966                           
  2967                           ;PROYECTO_02.c: 571:     IOCBbits.IOCB1 = 1;
  2968  07EA  1496               	bsf	22,1	;volatile
  2969  07EB                     l2429:
  2970                           
  2971                           ;PROYECTO_02.c: 572:     IOCBbits.IOCB2 = 1;
  2972  07EB  1516               	bsf	22,2	;volatile
  2973  07EC                     l2431:
  2974                           
  2975                           ;PROYECTO_02.c: 573:     IOCBbits.IOCB3 = 1;
  2976  07EC  1596               	bsf	22,3	;volatile
  2977  07ED                     l2433:
  2978                           
  2979                           ;PROYECTO_02.c: 574:     WPUBbits.WPUB0 = 1;
  2980  07ED  1415               	bsf	21,0	;volatile
  2981  07EE                     l2435:
  2982                           
  2983                           ;PROYECTO_02.c: 575:     WPUBbits.WPUB1 = 1;
  2984  07EE  1495               	bsf	21,1	;volatile
  2985  07EF                     l2437:
  2986                           
  2987                           ;PROYECTO_02.c: 576:     WPUBbits.WPUB2 = 1;
  2988  07EF  1515               	bsf	21,2	;volatile
  2989  07F0                     l2439:
  2990                           
  2991                           ;PROYECTO_02.c: 577:     WPUBbits.WPUB3 = 1;
  2992  07F0  1595               	bsf	21,3	;volatile
  2993  07F1                     l2441:
  2994                           
  2995                           ;PROYECTO_02.c: 581:     INTCONbits.GIE = 1;
  2996  07F1  178B               	bsf	11,7	;volatile
  2997  07F2                     l2443:
  2998                           
  2999                           ;PROYECTO_02.c: 582:     INTCONbits.T0IE = 1;
  3000  07F2  168B               	bsf	11,5	;volatile
  3001  07F3                     l2445:
  3002                           
  3003                           ;PROYECTO_02.c: 583:     INTCONbits.RBIE = 1;
  3004  07F3  158B               	bsf	11,3	;volatile
  3005  07F4                     l2447:
  3006                           
  3007                           ;PROYECTO_02.c: 584:     RBIF = 0;
  3008  07F4  100B               	bcf	11,0	;volatile
  3009  07F5                     l267:
  3010  07F5  0008               	return
  3011  07F6                     __end_of_setup:
  3012                           
  3013                           	psect	text10
  3014  06B1                     __ptext10:	
  3015 ;; *************** function _parpadeo *****************
  3016 ;; Defined at:
  3017 ;;		line 728 in file "PROYECTO_02.c"
  3018 ;; Parameters:    Size  Location     Type
  3019 ;;		None
  3020 ;; Auto vars:     Size  Location     Type
  3021 ;;  i               2   29[BANK0 ] int 
  3022 ;; Return value:  Size  Location     Type
  3023 ;;                  1    wreg      void 
  3024 ;; Registers used:
  3025 ;;		wreg, status,2, status,0, btemp+1, pclath, cstack
  3026 ;; Tracked objects:
  3027 ;;		On entry : 0/0
  3028 ;;		On exit  : 0/0
  3029 ;;		Unchanged: 0/0
  3030 ;; Data sizes:     COMMON   BANK0   BANK1   BANK3   BANK2
  3031 ;;      Params:         0       0       0       0       0
  3032 ;;      Locals:         0       2       0       0       0
  3033 ;;      Temps:          0       2       0       0       0
  3034 ;;      Totals:         0       4       0       0       0
  3035 ;;Total ram usage:        4 bytes
  3036 ;; Hardware stack levels used: 1
  3037 ;; Hardware stack levels required when called: 4
  3038 ;; This function calls:
  3039 ;;		___awdiv
  3040 ;;		___wmul
  3041 ;; This function is called by:
  3042 ;;		_main
  3043 ;; This function uses a non-reentrant model
  3044 ;;
  3045                           
  3046  06B1                     _parpadeo:	
  3047                           ;psect for function _parpadeo
  3048                           
  3049  06B1                     l2381:	
  3050                           ;incstack = 0
  3051                           ; Regs used in _parpadeo: [wreg+status,2+status,0+btemp+1+pclath+cstack]
  3052                           
  3053                           
  3054                           ;PROYECTO_02.c: 730:     duty_cycleP = 0;
  3055  06B1  1283               	bcf	3,5	;RP0=0, select bank0
  3056  06B2  1303               	bcf	3,6	;RP1=0, select bank0
  3057  06B3  01CB               	clrf	_duty_cycleP
  3058  06B4  01CC               	clrf	_duty_cycleP+1
  3059                           
  3060                           ;PROYECTO_02.c: 733:             for (int i = 0; i <= 20; i++) {
  3061  06B5  01BD               	clrf	parpadeo@i
  3062  06B6  01BE               	clrf	parpadeo@i+1
  3063  06B7                     l2387:
  3064                           
  3065                           ;PROYECTO_02.c: 735:             duty_cycleP = (char) ((i * (0 - 20) / 20) + 20);
  3066  06B7  3014               	movlw	20
  3067  06B8  1283               	bcf	3,5	;RP0=0, select bank0
  3068  06B9  1303               	bcf	3,6	;RP1=0, select bank0
  3069  06BA  00B2               	movwf	___awdiv@divisor
  3070  06BB  3000               	movlw	0
  3071  06BC  00B3               	movwf	___awdiv@divisor+1
  3072  06BD  083E               	movf	parpadeo@i+1,w
  3073  06BE  00AD               	movwf	___wmul@multiplier+1
  3074  06BF  083D               	movf	parpadeo@i,w
  3075  06C0  00AC               	movwf	___wmul@multiplier
  3076  06C1  30EC               	movlw	236
  3077  06C2  00AE               	movwf	___wmul@multiplicand
  3078  06C3  30FF               	movlw	255
  3079  06C4  00AF               	movwf	___wmul@multiplicand+1
  3080  06C5  120A  158A  2778  120A  118A  	fcall	___wmul
  3081  06CA  1283               	bcf	3,5	;RP0=0, select bank0
  3082  06CB  1303               	bcf	3,6	;RP1=0, select bank0
  3083  06CC  082D               	movf	?___wmul+1,w
  3084  06CD  00B5               	movwf	___awdiv@dividend+1
  3085  06CE  082C               	movf	?___wmul,w
  3086  06CF  00B4               	movwf	___awdiv@dividend
  3087  06D0  120A  118A  25DF  120A  118A  	fcall	___awdiv
  3088  06D5  1283               	bcf	3,5	;RP0=0, select bank0
  3089  06D6  1303               	bcf	3,6	;RP1=0, select bank0
  3090  06D7  0832               	movf	?___awdiv,w
  3091  06D8  3E14               	addlw	20
  3092  06D9  00BB               	movwf	??_parpadeo
  3093  06DA  01BC               	clrf	??_parpadeo+1
  3094  06DB  083B               	movf	??_parpadeo,w
  3095  06DC  00CB               	movwf	_duty_cycleP
  3096  06DD  083C               	movf	??_parpadeo+1,w
  3097  06DE  00CC               	movwf	_duty_cycleP+1
  3098  06DF                     l2389:
  3099                           
  3100                           ;PROYECTO_02.c: 736:             _delay((unsigned long)((20)*(4000000/4000.0)));
  3101  06DF  301A               	movlw	26
  3102  06E0  1283               	bcf	3,5	;RP0=0, select bank0
  3103  06E1  1303               	bcf	3,6	;RP1=0, select bank0
  3104  06E2  00BC               	movwf	??_parpadeo+1
  3105  06E3  30F7               	movlw	247
  3106  06E4  00BB               	movwf	??_parpadeo
  3107  06E5                     u2257:
  3108  06E5  0BBB               	decfsz	??_parpadeo,f
  3109  06E6  2EE5               	goto	u2257
  3110  06E7  0BBC               	decfsz	??_parpadeo+1,f
  3111  06E8  2EE5               	goto	u2257
  3112  06E9  2EEA               	nop2
  3113  06EA                     l2391:
  3114                           
  3115                           ;PROYECTO_02.c: 737:             }
  3116  06EA  3001               	movlw	1
  3117  06EB  1283               	bcf	3,5	;RP0=0, select bank0
  3118  06EC  1303               	bcf	3,6	;RP1=0, select bank0
  3119  06ED  07BD               	addwf	parpadeo@i,f
  3120  06EE  1803               	skipnc
  3121  06EF  0ABE               	incf	parpadeo@i+1,f
  3122  06F0  3000               	movlw	0
  3123  06F1  07BE               	addwf	parpadeo@i+1,f
  3124  06F2                     l2393:
  3125  06F2  083E               	movf	parpadeo@i+1,w
  3126  06F3  3A80               	xorlw	128
  3127  06F4  00FF               	movwf	btemp+1
  3128  06F5  3080               	movlw	128
  3129  06F6  027F               	subwf	btemp+1,w
  3130  06F7  1D03               	skipz
  3131  06F8  2EFB               	goto	u2005
  3132  06F9  3015               	movlw	21
  3133  06FA  023D               	subwf	parpadeo@i,w
  3134  06FB                     u2005:
  3135  06FB  1C03               	skipc
  3136  06FC  2EFE               	goto	u2001
  3137  06FD  2EFF               	goto	u2000
  3138  06FE                     u2001:
  3139  06FE  2EB7               	goto	l2387
  3140  06FF                     u2000:
  3141  06FF                     l305:
  3142  06FF  0008               	return
  3143  0700                     __end_of_parpadeo:
  3144                           
  3145                           	psect	text11
  3146  03A5                     __ptext11:	
  3147 ;; *************** function _map *****************
  3148 ;; Defined at:
  3149 ;;		line 347 in file "PROYECTO_02.c"
  3150 ;; Parameters:    Size  Location     Type
  3151 ;;  input           2   27[BANK0 ] int 
  3152 ;;  in_min          2   29[BANK0 ] int 
  3153 ;;  in_max          2   31[BANK0 ] int 
  3154 ;;  out_min         2   33[BANK0 ] int 
  3155 ;;  out_max         2   35[BANK0 ] int 
  3156 ;; Auto vars:     Size  Location     Type
  3157 ;;  output          2   37[BANK0 ] int 
  3158 ;; Return value:  Size  Location     Type
  3159 ;;                  2   27[BANK0 ] int 
  3160 ;; Registers used:
  3161 ;;		wreg, status,2, status,0, pclath, cstack
  3162 ;; Tracked objects:
  3163 ;;		On entry : 0/0
  3164 ;;		On exit  : 0/0
  3165 ;;		Unchanged: 0/0
  3166 ;; Data sizes:     COMMON   BANK0   BANK1   BANK3   BANK2
  3167 ;;      Params:         0      10       0       0       0
  3168 ;;      Locals:         0       2       0       0       0
  3169 ;;      Temps:          0       0       0       0       0
  3170 ;;      Totals:         0      12       0       0       0
  3171 ;;Total ram usage:       12 bytes
  3172 ;; Hardware stack levels used: 1
  3173 ;; Hardware stack levels required when called: 4
  3174 ;; This function calls:
  3175 ;;		___awdiv
  3176 ;;		___wmul
  3177 ;; This function is called by:
  3178 ;;		_main
  3179 ;; This function uses a non-reentrant model
  3180 ;;
  3181                           
  3182  03A5                     _map:	
  3183                           ;psect for function _map
  3184                           
  3185  03A5                     l2395:	
  3186                           ;incstack = 0
  3187                           ; Regs used in _map: [wreg+status,2+status,0+pclath+cstack]
  3188                           
  3189                           
  3190                           ;PROYECTO_02.c: 348:   int output = (input - in_min) * (out_max - out_min) / (in_max - i
      +                          n_min) + out_min;
  3191  03A5  1283               	bcf	3,5	;RP0=0, select bank0
  3192  03A6  1303               	bcf	3,6	;RP1=0, select bank0
  3193  03A7  083D               	movf	map@in_min,w
  3194  03A8  023F               	subwf	map@in_max,w
  3195  03A9  00B2               	movwf	___awdiv@divisor
  3196  03AA  083E               	movf	map@in_min+1,w
  3197  03AB  1C03               	skipc
  3198  03AC  0A3E               	incf	map@in_min+1,w
  3199  03AD  0240               	subwf	map@in_max+1,w
  3200  03AE  00B3               	movwf	___awdiv@divisor+1
  3201  03AF  083D               	movf	map@in_min,w
  3202  03B0  023B               	subwf	map@input,w
  3203  03B1  00AC               	movwf	___wmul@multiplier
  3204  03B2  083E               	movf	map@in_min+1,w
  3205  03B3  1C03               	skipc
  3206  03B4  0A3E               	incf	map@in_min+1,w
  3207  03B5  023C               	subwf	map@input+1,w
  3208  03B6  00AD               	movwf	___wmul@multiplier+1
  3209  03B7  0841               	movf	map@out_min,w
  3210  03B8  0243               	subwf	map@out_max,w
  3211  03B9  00AE               	movwf	___wmul@multiplicand
  3212  03BA  0842               	movf	map@out_min+1,w
  3213  03BB  1C03               	skipc
  3214  03BC  0A42               	incf	map@out_min+1,w
  3215  03BD  0244               	subwf	map@out_max+1,w
  3216  03BE  00AF               	movwf	___wmul@multiplicand+1
  3217  03BF  120A  158A  2778  120A  118A  	fcall	___wmul
  3218  03C4  1283               	bcf	3,5	;RP0=0, select bank0
  3219  03C5  1303               	bcf	3,6	;RP1=0, select bank0
  3220  03C6  082D               	movf	?___wmul+1,w
  3221  03C7  00B5               	movwf	___awdiv@dividend+1
  3222  03C8  082C               	movf	?___wmul,w
  3223  03C9  00B4               	movwf	___awdiv@dividend
  3224  03CA  120A  118A  25DF  120A  118A  	fcall	___awdiv
  3225  03CF  1283               	bcf	3,5	;RP0=0, select bank0
  3226  03D0  1303               	bcf	3,6	;RP1=0, select bank0
  3227  03D1  0841               	movf	map@out_min,w
  3228  03D2  0732               	addwf	?___awdiv,w
  3229  03D3  00C5               	movwf	map@output
  3230  03D4  0842               	movf	map@out_min+1,w
  3231  03D5  1803               	skipnc
  3232  03D6  0A42               	incf	map@out_min+1,w
  3233  03D7  0733               	addwf	?___awdiv+1,w
  3234  03D8  00C6               	movwf	map@output+1
  3235  03D9                     l2397:
  3236                           
  3237                           ;PROYECTO_02.c: 349:   return output;
  3238  03D9  0846               	movf	map@output+1,w
  3239  03DA  00BC               	movwf	?_map+1
  3240  03DB  0845               	movf	map@output,w
  3241  03DC  00BB               	movwf	?_map
  3242  03DD                     l240:
  3243  03DD  0008               	return
  3244  03DE                     __end_of_map:
  3245                           
  3246                           	psect	text12
  3247  0F78                     __ptext12:	
  3248 ;; *************** function ___wmul *****************
  3249 ;; Defined at:
  3250 ;;		line 15 in file "C:\Program Files\Microchip\xc8\v2.35\pic\sources\c90\common\Umul16.c"
  3251 ;; Parameters:    Size  Location     Type
  3252 ;;  multiplier      2   12[BANK0 ] unsigned int 
  3253 ;;  multiplicand    2   14[BANK0 ] unsigned int 
  3254 ;; Auto vars:     Size  Location     Type
  3255 ;;  product         2   16[BANK0 ] unsigned int 
  3256 ;; Return value:  Size  Location     Type
  3257 ;;                  2   12[BANK0 ] unsigned int 
  3258 ;; Registers used:
  3259 ;;		wreg, status,2, status,0
  3260 ;; Tracked objects:
  3261 ;;		On entry : 0/0
  3262 ;;		On exit  : 0/0
  3263 ;;		Unchanged: 0/0
  3264 ;; Data sizes:     COMMON   BANK0   BANK1   BANK3   BANK2
  3265 ;;      Params:         0       4       0       0       0
  3266 ;;      Locals:         0       2       0       0       0
  3267 ;;      Temps:          0       0       0       0       0
  3268 ;;      Totals:         0       6       0       0       0
  3269 ;;Total ram usage:        6 bytes
  3270 ;; Hardware stack levels used: 1
  3271 ;; Hardware stack levels required when called: 3
  3272 ;; This function calls:
  3273 ;;		Nothing
  3274 ;; This function is called by:
  3275 ;;		_map
  3276 ;;		_parpadeo
  3277 ;; This function uses a non-reentrant model
  3278 ;;
  3279                           
  3280  0F78                     ___wmul:	
  3281                           ;psect for function ___wmul
  3282                           
  3283  0F78                     l2275:	
  3284                           ;incstack = 0
  3285                           ; Regs used in ___wmul: [wreg+status,2+status,0]
  3286                           
  3287  0F78  1283               	bcf	3,5	;RP0=0, select bank0
  3288  0F79  1303               	bcf	3,6	;RP1=0, select bank0
  3289  0F7A  01B0               	clrf	___wmul@product
  3290  0F7B  01B1               	clrf	___wmul@product+1
  3291  0F7C                     l2277:
  3292  0F7C  1C2C               	btfss	___wmul@multiplier,0
  3293  0F7D  2F7F               	goto	u1731
  3294  0F7E  2F80               	goto	u1730
  3295  0F7F                     u1731:
  3296  0F7F  2F86               	goto	l419
  3297  0F80                     u1730:
  3298  0F80                     l2279:
  3299  0F80  082E               	movf	___wmul@multiplicand,w
  3300  0F81  07B0               	addwf	___wmul@product,f
  3301  0F82  1803               	skipnc
  3302  0F83  0AB1               	incf	___wmul@product+1,f
  3303  0F84  082F               	movf	___wmul@multiplicand+1,w
  3304  0F85  07B1               	addwf	___wmul@product+1,f
  3305  0F86                     l419:
  3306  0F86  3001               	movlw	1
  3307  0F87                     u1745:
  3308  0F87  1003               	clrc
  3309  0F88  0DAE               	rlf	___wmul@multiplicand,f
  3310  0F89  0DAF               	rlf	___wmul@multiplicand+1,f
  3311  0F8A  3EFF               	addlw	-1
  3312  0F8B  1D03               	skipz
  3313  0F8C  2F87               	goto	u1745
  3314  0F8D                     l2281:
  3315  0F8D  3001               	movlw	1
  3316  0F8E                     u1755:
  3317  0F8E  1003               	clrc
  3318  0F8F  0CAD               	rrf	___wmul@multiplier+1,f
  3319  0F90  0CAC               	rrf	___wmul@multiplier,f
  3320  0F91  3EFF               	addlw	-1
  3321  0F92  1D03               	skipz
  3322  0F93  2F8E               	goto	u1755
  3323  0F94                     l2283:
  3324  0F94  082C               	movf	___wmul@multiplier,w
  3325  0F95  042D               	iorwf	___wmul@multiplier+1,w
  3326  0F96  1D03               	btfss	3,2
  3327  0F97  2F99               	goto	u1761
  3328  0F98  2F9A               	goto	u1760
  3329  0F99                     u1761:
  3330  0F99  2F7C               	goto	l2277
  3331  0F9A                     u1760:
  3332  0F9A                     l2285:
  3333  0F9A  0831               	movf	___wmul@product+1,w
  3334  0F9B  00AD               	movwf	?___wmul+1
  3335  0F9C  0830               	movf	___wmul@product,w
  3336  0F9D  00AC               	movwf	?___wmul
  3337  0F9E                     l421:
  3338  0F9E  0008               	return
  3339  0F9F                     __end_of___wmul:
  3340                           
  3341                           	psect	text13
  3342  05DF                     __ptext13:	
  3343 ;; *************** function ___awdiv *****************
  3344 ;; Defined at:
  3345 ;;		line 5 in file "C:\Program Files\Microchip\xc8\v2.35\pic\sources\c90\common\awdiv.c"
  3346 ;; Parameters:    Size  Location     Type
  3347 ;;  divisor         2   18[BANK0 ] int 
  3348 ;;  dividend        2   20[BANK0 ] int 
  3349 ;; Auto vars:     Size  Location     Type
  3350 ;;  quotient        2   25[BANK0 ] int 
  3351 ;;  sign            1   24[BANK0 ] unsigned char 
  3352 ;;  counter         1   23[BANK0 ] unsigned char 
  3353 ;; Return value:  Size  Location     Type
  3354 ;;                  2   18[BANK0 ] int 
  3355 ;; Registers used:
  3356 ;;		wreg, status,2, status,0
  3357 ;; Tracked objects:
  3358 ;;		On entry : 0/0
  3359 ;;		On exit  : 0/0
  3360 ;;		Unchanged: 0/0
  3361 ;; Data sizes:     COMMON   BANK0   BANK1   BANK3   BANK2
  3362 ;;      Params:         0       4       0       0       0
  3363 ;;      Locals:         0       4       0       0       0
  3364 ;;      Temps:          0       1       0       0       0
  3365 ;;      Totals:         0       9       0       0       0
  3366 ;;Total ram usage:        9 bytes
  3367 ;; Hardware stack levels used: 1
  3368 ;; Hardware stack levels required when called: 3
  3369 ;; This function calls:
  3370 ;;		Nothing
  3371 ;; This function is called by:
  3372 ;;		_map
  3373 ;;		_parpadeo
  3374 ;; This function uses a non-reentrant model
  3375 ;;
  3376                           
  3377  05DF                     ___awdiv:	
  3378                           ;psect for function ___awdiv
  3379                           
  3380  05DF                     l2289:	
  3381                           ;incstack = 0
  3382                           ; Regs used in ___awdiv: [wreg+status,2+status,0]
  3383                           
  3384  05DF  1283               	bcf	3,5	;RP0=0, select bank0
  3385  05E0  1303               	bcf	3,6	;RP1=0, select bank0
  3386  05E1  01B8               	clrf	___awdiv@sign
  3387  05E2                     l2291:
  3388  05E2  1FB3               	btfss	___awdiv@divisor+1,7
  3389  05E3  2DE5               	goto	u1771
  3390  05E4  2DE6               	goto	u1770
  3391  05E5                     u1771:
  3392  05E5  2DED               	goto	l2297
  3393  05E6                     u1770:
  3394  05E6                     l2293:
  3395  05E6  09B2               	comf	___awdiv@divisor,f
  3396  05E7  09B3               	comf	___awdiv@divisor+1,f
  3397  05E8  0AB2               	incf	___awdiv@divisor,f
  3398  05E9  1903               	skipnz
  3399  05EA  0AB3               	incf	___awdiv@divisor+1,f
  3400  05EB                     l2295:
  3401  05EB  01B8               	clrf	___awdiv@sign
  3402  05EC  0AB8               	incf	___awdiv@sign,f
  3403  05ED                     l2297:
  3404  05ED  1FB5               	btfss	___awdiv@dividend+1,7
  3405  05EE  2DF0               	goto	u1781
  3406  05EF  2DF1               	goto	u1780
  3407  05F0                     u1781:
  3408  05F0  2DFA               	goto	l2303
  3409  05F1                     u1780:
  3410  05F1                     l2299:
  3411  05F1  09B4               	comf	___awdiv@dividend,f
  3412  05F2  09B5               	comf	___awdiv@dividend+1,f
  3413  05F3  0AB4               	incf	___awdiv@dividend,f
  3414  05F4  1903               	skipnz
  3415  05F5  0AB5               	incf	___awdiv@dividend+1,f
  3416  05F6                     l2301:
  3417  05F6  3001               	movlw	1
  3418  05F7  00B6               	movwf	??___awdiv
  3419  05F8  0836               	movf	??___awdiv,w
  3420  05F9  06B8               	xorwf	___awdiv@sign,f
  3421  05FA                     l2303:
  3422  05FA  01B9               	clrf	___awdiv@quotient
  3423  05FB  01BA               	clrf	___awdiv@quotient+1
  3424  05FC                     l2305:
  3425  05FC  0832               	movf	___awdiv@divisor,w
  3426  05FD  0433               	iorwf	___awdiv@divisor+1,w
  3427  05FE  1903               	btfsc	3,2
  3428  05FF  2E01               	goto	u1791
  3429  0600  2E02               	goto	u1790
  3430  0601                     u1791:
  3431  0601  2E39               	goto	l2325
  3432  0602                     u1790:
  3433  0602                     l2307:
  3434  0602  01B7               	clrf	___awdiv@counter
  3435  0603  0AB7               	incf	___awdiv@counter,f
  3436  0604  2E10               	goto	l2313
  3437  0605                     l2309:
  3438  0605  3001               	movlw	1
  3439  0606                     u1805:
  3440  0606  1003               	clrc
  3441  0607  0DB2               	rlf	___awdiv@divisor,f
  3442  0608  0DB3               	rlf	___awdiv@divisor+1,f
  3443  0609  3EFF               	addlw	-1
  3444  060A  1D03               	skipz
  3445  060B  2E06               	goto	u1805
  3446  060C                     l2311:
  3447  060C  3001               	movlw	1
  3448  060D  00B6               	movwf	??___awdiv
  3449  060E  0836               	movf	??___awdiv,w
  3450  060F  07B7               	addwf	___awdiv@counter,f
  3451  0610                     l2313:
  3452  0610  1FB3               	btfss	___awdiv@divisor+1,7
  3453  0611  2E13               	goto	u1811
  3454  0612  2E14               	goto	u1810
  3455  0613                     u1811:
  3456  0613  2E05               	goto	l2309
  3457  0614                     u1810:
  3458  0614                     l2315:
  3459  0614  3001               	movlw	1
  3460  0615                     u1825:
  3461  0615  1003               	clrc
  3462  0616  0DB9               	rlf	___awdiv@quotient,f
  3463  0617  0DBA               	rlf	___awdiv@quotient+1,f
  3464  0618  3EFF               	addlw	-1
  3465  0619  1D03               	skipz
  3466  061A  2E15               	goto	u1825
  3467  061B  0833               	movf	___awdiv@divisor+1,w
  3468  061C  0235               	subwf	___awdiv@dividend+1,w
  3469  061D  1D03               	skipz
  3470  061E  2E21               	goto	u1835
  3471  061F  0832               	movf	___awdiv@divisor,w
  3472  0620  0234               	subwf	___awdiv@dividend,w
  3473  0621                     u1835:
  3474  0621  1C03               	skipc
  3475  0622  2E24               	goto	u1831
  3476  0623  2E25               	goto	u1830
  3477  0624                     u1831:
  3478  0624  2E2C               	goto	l2321
  3479  0625                     u1830:
  3480  0625                     l2317:
  3481  0625  0832               	movf	___awdiv@divisor,w
  3482  0626  02B4               	subwf	___awdiv@dividend,f
  3483  0627  0833               	movf	___awdiv@divisor+1,w
  3484  0628  1C03               	skipc
  3485  0629  03B5               	decf	___awdiv@dividend+1,f
  3486  062A  02B5               	subwf	___awdiv@dividend+1,f
  3487  062B                     l2319:
  3488  062B  1439               	bsf	___awdiv@quotient,0
  3489  062C                     l2321:
  3490  062C  3001               	movlw	1
  3491  062D                     u1845:
  3492  062D  1003               	clrc
  3493  062E  0CB3               	rrf	___awdiv@divisor+1,f
  3494  062F  0CB2               	rrf	___awdiv@divisor,f
  3495  0630  3EFF               	addlw	-1
  3496  0631  1D03               	skipz
  3497  0632  2E2D               	goto	u1845
  3498  0633                     l2323:
  3499  0633  3001               	movlw	1
  3500  0634  02B7               	subwf	___awdiv@counter,f
  3501  0635  1D03               	btfss	3,2
  3502  0636  2E38               	goto	u1851
  3503  0637  2E39               	goto	u1850
  3504  0638                     u1851:
  3505  0638  2E14               	goto	l2315
  3506  0639                     u1850:
  3507  0639                     l2325:
  3508  0639  0838               	movf	___awdiv@sign,w
  3509  063A  1903               	btfsc	3,2
  3510  063B  2E3D               	goto	u1861
  3511  063C  2E3E               	goto	u1860
  3512  063D                     u1861:
  3513  063D  2E43               	goto	l2329
  3514  063E                     u1860:
  3515  063E                     l2327:
  3516  063E  09B9               	comf	___awdiv@quotient,f
  3517  063F  09BA               	comf	___awdiv@quotient+1,f
  3518  0640  0AB9               	incf	___awdiv@quotient,f
  3519  0641  1903               	skipnz
  3520  0642  0ABA               	incf	___awdiv@quotient+1,f
  3521  0643                     l2329:
  3522  0643  083A               	movf	___awdiv@quotient+1,w
  3523  0644  00B3               	movwf	?___awdiv+1
  3524  0645  0839               	movf	___awdiv@quotient,w
  3525  0646  00B2               	movwf	?___awdiv
  3526  0647                     l572:
  3527  0647  0008               	return
  3528  0648                     __end_of___awdiv:
  3529                           
  3530                           	psect	text14
  3531  0EF3                     __ptext14:	
  3532 ;; *************** function _enter *****************
  3533 ;; Defined at:
  3534 ;;		line 721 in file "PROYECTO_02.c"
  3535 ;; Parameters:    Size  Location     Type
  3536 ;;		None
  3537 ;; Auto vars:     Size  Location     Type
  3538 ;;		None
  3539 ;; Return value:  Size  Location     Type
  3540 ;;                  1    wreg      void 
  3541 ;; Registers used:
  3542 ;;		wreg, status,2, status,0, pclath, cstack
  3543 ;; Tracked objects:
  3544 ;;		On entry : 0/0
  3545 ;;		On exit  : 0/0
  3546 ;;		Unchanged: 0/0
  3547 ;; Data sizes:     COMMON   BANK0   BANK1   BANK3   BANK2
  3548 ;;      Params:         0       0       0       0       0
  3549 ;;      Locals:         0       0       0       0       0
  3550 ;;      Temps:          0       0       0       0       0
  3551 ;;      Totals:         0       0       0       0       0
  3552 ;;Total ram usage:        0 bytes
  3553 ;; Hardware stack levels used: 1
  3554 ;; Hardware stack levels required when called: 4
  3555 ;; This function calls:
  3556 ;;		_enviar_caracter
  3557 ;; This function is called by:
  3558 ;;		_main
  3559 ;; This function uses a non-reentrant model
  3560 ;;
  3561                           
  3562  0EF3                     _enter:	
  3563                           ;psect for function _enter
  3564                           
  3565  0EF3                     l2521:	
  3566                           ;incstack = 0
  3567                           ; Regs used in _enter: [wreg+status,2+status,0+pclath+cstack]
  3568                           
  3569                           
  3570                           ;PROYECTO_02.c: 723:     enviar_caracter('\r');
  3571  0EF3  300D               	movlw	13
  3572  0EF4  120A  118A  27F6  120A  158A  	fcall	_enviar_caracter
  3573                           
  3574                           ;PROYECTO_02.c: 724:     enviar_caracter('\n');
  3575  0EF9  300A               	movlw	10
  3576  0EFA  120A  118A  27F6  120A  158A  	fcall	_enviar_caracter
  3577  0EFF                     l300:
  3578  0EFF  0008               	return
  3579  0F00                     __end_of_enter:
  3580                           
  3581                           	psect	text15
  3582  0F9F                     __ptext15:	
  3583 ;; *************** function _cadena *****************
  3584 ;; Defined at:
  3585 ;;		line 711 in file "PROYECTO_02.c"
  3586 ;; Parameters:    Size  Location     Type
  3587 ;;  txt             2   13[BANK0 ] PTR unsigned char 
  3588 ;;		 -> STR_9(24), STR_8(22), STR_7(31), main@valorazulStr(4), 
  3589 ;;		 -> STR_5(32), main@valorverdeStr(4), STR_3(31), main@valorrojoStr(4), 
  3590 ;;		 -> STR_1(76), 
  3591 ;; Auto vars:     Size  Location     Type
  3592 ;;		None
  3593 ;; Return value:  Size  Location     Type
  3594 ;;                  1    wreg      void 
  3595 ;; Registers used:
  3596 ;;		wreg, fsr0l, fsr0h, status,2, status,0, btemp+1, pclath, cstack
  3597 ;; Tracked objects:
  3598 ;;		On entry : 0/0
  3599 ;;		On exit  : 0/0
  3600 ;;		Unchanged: 0/0
  3601 ;; Data sizes:     COMMON   BANK0   BANK1   BANK3   BANK2
  3602 ;;      Params:         0       2       0       0       0
  3603 ;;      Locals:         0       0       0       0       0
  3604 ;;      Temps:          0       0       0       0       0
  3605 ;;      Totals:         0       2       0       0       0
  3606 ;;Total ram usage:        2 bytes
  3607 ;; Hardware stack levels used: 1
  3608 ;; Hardware stack levels required when called: 4
  3609 ;; This function calls:
  3610 ;;		_enviar_caracter
  3611 ;; This function is called by:
  3612 ;;		_main
  3613 ;; This function uses a non-reentrant model
  3614 ;;
  3615                           
  3616  0F9F                     _cadena:	
  3617                           ;psect for function _cadena
  3618                           
  3619  0F9F                     l2513:	
  3620                           ;incstack = 0
  3621                           ; Regs used in _cadena: [wreg-fsr0h+status,2+status,0+btemp+1+pclath+cstack]
  3622                           
  3623                           
  3624                           ;PROYECTO_02.c: 713:     while (*txt != '\0') {
  3625  0F9F  2FB6               	goto	l2519
  3626  0FA0                     l2515:
  3627                           
  3628                           ;PROYECTO_02.c: 715:         enviar_caracter(*txt);
  3629  0FA0  082E               	movf	cadena@txt+1,w
  3630  0FA1  00FF               	movwf	btemp+1
  3631  0FA2  082D               	movf	cadena@txt,w
  3632  0FA3  0084               	movwf	4
  3633  0FA4  120A  118A  2400  120A  158A  	fcall	stringtab
  3634  0FA9  120A  118A  27F6  120A  158A  	fcall	_enviar_caracter
  3635  0FAE                     l2517:
  3636                           
  3637                           ;PROYECTO_02.c: 717:         txt++;
  3638  0FAE  3001               	movlw	1
  3639  0FAF  1283               	bcf	3,5	;RP0=0, select bank0
  3640  0FB0  1303               	bcf	3,6	;RP1=0, select bank0
  3641  0FB1  07AD               	addwf	cadena@txt,f
  3642  0FB2  1803               	skipnc
  3643  0FB3  0AAE               	incf	cadena@txt+1,f
  3644  0FB4  3000               	movlw	0
  3645  0FB5  07AE               	addwf	cadena@txt+1,f
  3646  0FB6                     l2519:
  3647                           
  3648                           ;PROYECTO_02.c: 713:     while (*txt != '\0') {
  3649  0FB6  1283               	bcf	3,5	;RP0=0, select bank0
  3650  0FB7  1303               	bcf	3,6	;RP1=0, select bank0
  3651  0FB8  082E               	movf	cadena@txt+1,w
  3652  0FB9  00FF               	movwf	btemp+1
  3653  0FBA  082D               	movf	cadena@txt,w
  3654  0FBB  0084               	movwf	4
  3655  0FBC  120A  118A  2400  120A  158A  	fcall	stringtab
  3656  0FC1  3A00               	xorlw	0
  3657  0FC2  1D03               	skipz
  3658  0FC3  2FC5               	goto	u2021
  3659  0FC4  2FC6               	goto	u2020
  3660  0FC5                     u2021:
  3661  0FC5  2FA0               	goto	l2515
  3662  0FC6                     u2020:
  3663  0FC6                     l297:
  3664  0FC6  0008               	return
  3665  0FC7                     __end_of_cadena:
  3666                           
  3667                           	psect	text16
  3668  07F6                     __ptext16:	
  3669 ;; *************** function _enviar_caracter *****************
  3670 ;; Defined at:
  3671 ;;		line 704 in file "PROYECTO_02.c"
  3672 ;; Parameters:    Size  Location     Type
  3673 ;;  tecla           1    wreg     unsigned char 
  3674 ;; Auto vars:     Size  Location     Type
  3675 ;;  tecla           1   12[BANK0 ] unsigned char 
  3676 ;; Return value:  Size  Location     Type
  3677 ;;                  1    wreg      void 
  3678 ;; Registers used:
  3679 ;;		wreg
  3680 ;; Tracked objects:
  3681 ;;		On entry : 0/0
  3682 ;;		On exit  : 0/0
  3683 ;;		Unchanged: 0/0
  3684 ;; Data sizes:     COMMON   BANK0   BANK1   BANK3   BANK2
  3685 ;;      Params:         0       0       0       0       0
  3686 ;;      Locals:         0       1       0       0       0
  3687 ;;      Temps:          0       0       0       0       0
  3688 ;;      Totals:         0       1       0       0       0
  3689 ;;Total ram usage:        1 bytes
  3690 ;; Hardware stack levels used: 1
  3691 ;; Hardware stack levels required when called: 3
  3692 ;; This function calls:
  3693 ;;		Nothing
  3694 ;; This function is called by:
  3695 ;;		_cadena
  3696 ;;		_enter
  3697 ;; This function uses a non-reentrant model
  3698 ;;
  3699                           
  3700  07F6                     _enviar_caracter:	
  3701                           ;psect for function _enviar_caracter
  3702                           
  3703                           
  3704                           ;incstack = 0
  3705                           ; Regs used in _enviar_caracter: [wreg]
  3706                           ;enviar_caracter@tecla stored from wreg
  3707  07F6  1283               	bcf	3,5	;RP0=0, select bank0
  3708  07F7  1303               	bcf	3,6	;RP1=0, select bank0
  3709  07F8  00AC               	movwf	enviar_caracter@tecla
  3710  07F9                     l2271:
  3711  07F9                     l288:	
  3712                           ;PROYECTO_02.c: 706:     while(!TXIF);
  3713                           
  3714  07F9  1E0C               	btfss	12,4	;volatile
  3715  07FA  2FFC               	goto	u1721
  3716  07FB  2FFD               	goto	u1720
  3717  07FC                     u1721:
  3718  07FC  2FF9               	goto	l288
  3719  07FD                     u1720:
  3720  07FD                     l2273:
  3721                           
  3722                           ;PROYECTO_02.c: 708:     TXREG = tecla;
  3723  07FD  082C               	movf	enviar_caracter@tecla,w
  3724  07FE  0099               	movwf	25	;volatile
  3725  07FF                     l291:
  3726  07FF  0008               	return
  3727  0800                     __end_of_enviar_caracter:
  3728                           
  3729                           	psect	text17
  3730  0292                     __ptext17:	
  3731 ;; *************** function _isr *****************
  3732 ;; Defined at:
  3733 ;;		line 194 in file "PROYECTO_02.c"
  3734 ;; Parameters:    Size  Location     Type
  3735 ;;		None
  3736 ;; Auto vars:     Size  Location     Type
  3737 ;;		None
  3738 ;; Return value:  Size  Location     Type
  3739 ;;                  1    wreg      void 
  3740 ;; Registers used:
  3741 ;;		wreg, status,2, status,0, btemp+1, pclath, cstack
  3742 ;; Tracked objects:
  3743 ;;		On entry : 0/0
  3744 ;;		On exit  : 0/0
  3745 ;;		Unchanged: 0/0
  3746 ;; Data sizes:     COMMON   BANK0   BANK1   BANK3   BANK2
  3747 ;;      Params:         0       0       0       0       0
  3748 ;;      Locals:         0       0       0       0       0
  3749 ;;      Temps:          0       6       0       0       0
  3750 ;;      Totals:         0       6       0       0       0
  3751 ;;Total ram usage:        6 bytes
  3752 ;; Hardware stack levels used: 1
  3753 ;; Hardware stack levels required when called: 2
  3754 ;; This function calls:
  3755 ;;		_readToEEPROM
  3756 ;;		_saveToEEPROM
  3757 ;;		i1_parpadeo
  3758 ;; This function is called by:
  3759 ;;		Interrupt level 1
  3760 ;; This function uses a non-reentrant model
  3761 ;;
  3762                           
  3763  0292                     _isr:	
  3764                           ;psect for function _isr
  3765                           
  3766  0292                     i1l2025:
  3767                           
  3768                           ;PROYECTO_02.c: 197:     if (T0IF) {
  3769  0292  1D0B               	btfss	11,2	;volatile
  3770  0293  2A95               	goto	u143_21
  3771  0294  2A96               	goto	u143_20
  3772  0295                     u143_21:
  3773  0295  2B25               	goto	i1l2081
  3774  0296                     u143_20:
  3775  0296                     i1l2027:
  3776                           
  3777                           ;PROYECTO_02.c: 200:         TMR0 = 256 - (4000000 / 4 / 1000 / 256);
  3778  0296  30FD               	movlw	253
  3779  0297  0081               	movwf	1	;volatile
  3780  0298                     i1l2029:
  3781                           
  3782                           ;PROYECTO_02.c: 202:         pwm_count1++;
  3783  0298  3001               	movlw	1
  3784  0299  00A6               	movwf	??_isr
  3785  029A  0826               	movf	??_isr,w
  3786  029B  07E3               	addwf	_pwm_count1,f
  3787  029C                     i1l2031:
  3788                           
  3789                           ;PROYECTO_02.c: 203:         pwm_count2++;
  3790  029C  3001               	movlw	1
  3791  029D  00A6               	movwf	??_isr
  3792  029E  0826               	movf	??_isr,w
  3793  029F  07E2               	addwf	_pwm_count2,f
  3794  02A0                     i1l2033:
  3795                           
  3796                           ;PROYECTO_02.c: 204:         pwm_count3++;
  3797  02A0  3001               	movlw	1
  3798  02A1  00A6               	movwf	??_isr
  3799  02A2  0826               	movf	??_isr,w
  3800  02A3  07E1               	addwf	_pwm_count3,f
  3801  02A4                     i1l2035:
  3802                           
  3803                           ;PROYECTO_02.c: 205:         pwm_countP++;
  3804  02A4  3001               	movlw	1
  3805  02A5  00A6               	movwf	??_isr
  3806  02A6  0826               	movf	??_isr,w
  3807  02A7  07E0               	addwf	_pwm_countP,f
  3808  02A8                     i1l2037:
  3809                           
  3810                           ;PROYECTO_02.c: 206:         pwm_countT++;
  3811  02A8  3001               	movlw	1
  3812  02A9  00A6               	movwf	??_isr
  3813  02AA  0826               	movf	??_isr,w
  3814  02AB  07DF               	addwf	_pwm_countT,f
  3815  02AC                     i1l2039:
  3816                           
  3817                           ;PROYECTO_02.c: 209:         if (pwm_count1 > duty_cycle1) {
  3818  02AC  0863               	movf	_pwm_count1,w
  3819  02AD  00A6               	movwf	??_isr
  3820  02AE  01A7               	clrf	??_isr+1
  3821  02AF  0827               	movf	??_isr+1,w
  3822  02B0  0252               	subwf	_duty_cycle1+1,w
  3823  02B1  1D03               	skipz
  3824  02B2  2AB5               	goto	u144_25
  3825  02B3  0826               	movf	??_isr,w
  3826  02B4  0251               	subwf	_duty_cycle1,w
  3827  02B5                     u144_25:
  3828  02B5  1803               	skipnc
  3829  02B6  2AB8               	goto	u144_21
  3830  02B7  2AB9               	goto	u144_20
  3831  02B8                     u144_21:
  3832  02B8  2ABB               	goto	i1l211
  3833  02B9                     u144_20:
  3834  02B9                     i1l2041:
  3835                           
  3836                           ;PROYECTO_02.c: 211:             PORTDbits.RD0 = 0; }
  3837  02B9  1008               	bcf	8,0	;volatile
  3838  02BA  2ABC               	goto	i1l2043
  3839  02BB                     i1l211:	
  3840                           ;PROYECTO_02.c: 212:         else {
  3841                           
  3842                           
  3843                           ;PROYECTO_02.c: 214:             PORTDbits.RD0 = 1;
  3844  02BB  1408               	bsf	8,0	;volatile
  3845  02BC                     i1l2043:
  3846                           
  3847                           ;PROYECTO_02.c: 218:         if (pwm_count2 > duty_cycle2) {
  3848  02BC  0862               	movf	_pwm_count2,w
  3849  02BD  00A6               	movwf	??_isr
  3850  02BE  01A7               	clrf	??_isr+1
  3851  02BF  0827               	movf	??_isr+1,w
  3852  02C0  0250               	subwf	_duty_cycle2+1,w
  3853  02C1  1D03               	skipz
  3854  02C2  2AC5               	goto	u145_25
  3855  02C3  0826               	movf	??_isr,w
  3856  02C4  024F               	subwf	_duty_cycle2,w
  3857  02C5                     u145_25:
  3858  02C5  1803               	skipnc
  3859  02C6  2AC8               	goto	u145_21
  3860  02C7  2AC9               	goto	u145_20
  3861  02C8                     u145_21:
  3862  02C8  2ACB               	goto	i1l213
  3863  02C9                     u145_20:
  3864  02C9                     i1l2045:
  3865                           
  3866                           ;PROYECTO_02.c: 220:             PORTDbits.RD1 = 0; }
  3867  02C9  1088               	bcf	8,1	;volatile
  3868  02CA  2ACC               	goto	i1l2047
  3869  02CB                     i1l213:	
  3870                           ;PROYECTO_02.c: 221:         else {
  3871                           
  3872                           
  3873                           ;PROYECTO_02.c: 223:             PORTDbits.RD1 = 1;
  3874  02CB  1488               	bsf	8,1	;volatile
  3875  02CC                     i1l2047:
  3876                           
  3877                           ;PROYECTO_02.c: 227:         if (pwm_count3 > duty_cycle3) {
  3878  02CC  0861               	movf	_pwm_count3,w
  3879  02CD  00A6               	movwf	??_isr
  3880  02CE  01A7               	clrf	??_isr+1
  3881  02CF  0827               	movf	??_isr+1,w
  3882  02D0  024E               	subwf	_duty_cycle3+1,w
  3883  02D1  1D03               	skipz
  3884  02D2  2AD5               	goto	u146_25
  3885  02D3  0826               	movf	??_isr,w
  3886  02D4  024D               	subwf	_duty_cycle3,w
  3887  02D5                     u146_25:
  3888  02D5  1803               	skipnc
  3889  02D6  2AD8               	goto	u146_21
  3890  02D7  2AD9               	goto	u146_20
  3891  02D8                     u146_21:
  3892  02D8  2ADB               	goto	i1l215
  3893  02D9                     u146_20:
  3894  02D9                     i1l2049:
  3895                           
  3896                           ;PROYECTO_02.c: 229:             PORTDbits.RD2 = 0; }
  3897  02D9  1108               	bcf	8,2	;volatile
  3898  02DA  2ADC               	goto	i1l2051
  3899  02DB                     i1l215:	
  3900                           ;PROYECTO_02.c: 230:         else {
  3901                           
  3902                           
  3903                           ;PROYECTO_02.c: 232:             PORTDbits.RD2 = 1;
  3904  02DB  1508               	bsf	8,2	;volatile
  3905  02DC                     i1l2051:
  3906                           
  3907                           ;PROYECTO_02.c: 236:         if (pwm_countP > duty_cycleP) {
  3908  02DC  0860               	movf	_pwm_countP,w
  3909  02DD  00A6               	movwf	??_isr
  3910  02DE  01A7               	clrf	??_isr+1
  3911  02DF  0827               	movf	??_isr+1,w
  3912  02E0  024C               	subwf	_duty_cycleP+1,w
  3913  02E1  1D03               	skipz
  3914  02E2  2AE5               	goto	u147_25
  3915  02E3  0826               	movf	??_isr,w
  3916  02E4  024B               	subwf	_duty_cycleP,w
  3917  02E5                     u147_25:
  3918  02E5  1803               	skipnc
  3919  02E6  2AE8               	goto	u147_21
  3920  02E7  2AE9               	goto	u147_20
  3921  02E8                     u147_21:
  3922  02E8  2AEB               	goto	i1l217
  3923  02E9                     u147_20:
  3924  02E9                     i1l2053:
  3925                           
  3926                           ;PROYECTO_02.c: 238:             PORTDbits.RD3 = 0; }
  3927  02E9  1188               	bcf	8,3	;volatile
  3928  02EA  2AEC               	goto	i1l2055
  3929  02EB                     i1l217:	
  3930                           ;PROYECTO_02.c: 239:         else {
  3931                           
  3932                           
  3933                           ;PROYECTO_02.c: 241:             PORTDbits.RD3 = 1;
  3934  02EB  1588               	bsf	8,3	;volatile
  3935  02EC                     i1l2055:
  3936                           
  3937                           ;PROYECTO_02.c: 245:         if (pwm_countT > duty_cycleT) {
  3938  02EC  085F               	movf	_pwm_countT,w
  3939  02ED  00A6               	movwf	??_isr
  3940  02EE  01A7               	clrf	??_isr+1
  3941  02EF  0827               	movf	??_isr+1,w
  3942  02F0  1683               	bsf	3,5	;RP0=1, select bank1
  3943  02F1  1303               	bcf	3,6	;RP1=0, select bank1
  3944  02F2  0231               	subwf	(_duty_cycleT+1)^(0+128),w
  3945  02F3  1D03               	skipz
  3946  02F4  2AFB               	goto	u148_25
  3947  02F5  1283               	bcf	3,5	;RP0=0, select bank0
  3948  02F6  1303               	bcf	3,6	;RP1=0, select bank0
  3949  02F7  0826               	movf	??_isr,w
  3950  02F8  1683               	bsf	3,5	;RP0=1, select bank1
  3951  02F9  1303               	bcf	3,6	;RP1=0, select bank1
  3952  02FA  0230               	subwf	_duty_cycleT^(0+128),w
  3953  02FB                     u148_25:
  3954  02FB  1803               	skipnc
  3955  02FC  2AFE               	goto	u148_21
  3956  02FD  2AFF               	goto	u148_20
  3957  02FE                     u148_21:
  3958  02FE  2B03               	goto	i1l219
  3959  02FF                     u148_20:
  3960  02FF                     i1l2057:
  3961                           
  3962                           ;PROYECTO_02.c: 247:             PORTDbits.RD4 = 0; }
  3963  02FF  1283               	bcf	3,5	;RP0=0, select bank0
  3964  0300  1303               	bcf	3,6	;RP1=0, select bank0
  3965  0301  1208               	bcf	8,4	;volatile
  3966  0302  2B06               	goto	i1l2059
  3967  0303                     i1l219:	
  3968                           ;PROYECTO_02.c: 248:         else {
  3969                           
  3970                           
  3971                           ;PROYECTO_02.c: 250:             PORTDbits.RD4 = 1;
  3972  0303  1283               	bcf	3,5	;RP0=0, select bank0
  3973  0304  1303               	bcf	3,6	;RP1=0, select bank0
  3974  0305  1608               	bsf	8,4	;volatile
  3975  0306                     i1l2059:
  3976                           
  3977                           ;PROYECTO_02.c: 254:         if (pwm_count1 >= 255) {
  3978  0306  0A63               	incf	_pwm_count1,w
  3979  0307  1D03               	btfss	3,2
  3980  0308  2B0A               	goto	u149_21
  3981  0309  2B0B               	goto	u149_20
  3982  030A                     u149_21:
  3983  030A  2B0C               	goto	i1l2063
  3984  030B                     u149_20:
  3985  030B                     i1l2061:
  3986                           
  3987                           ;PROYECTO_02.c: 256:             pwm_count1 = 0; }
  3988  030B  01E3               	clrf	_pwm_count1
  3989  030C                     i1l2063:
  3990                           
  3991                           ;PROYECTO_02.c: 259:         if (pwm_count2 >= 255) {
  3992  030C  0A62               	incf	_pwm_count2,w
  3993  030D  1D03               	btfss	3,2
  3994  030E  2B10               	goto	u150_21
  3995  030F  2B11               	goto	u150_20
  3996  0310                     u150_21:
  3997  0310  2B12               	goto	i1l2067
  3998  0311                     u150_20:
  3999  0311                     i1l2065:
  4000                           
  4001                           ;PROYECTO_02.c: 261:             pwm_count2 = 0; }
  4002  0311  01E2               	clrf	_pwm_count2
  4003  0312                     i1l2067:
  4004                           
  4005                           ;PROYECTO_02.c: 264:         if (pwm_count3 >= 255) {
  4006  0312  0A61               	incf	_pwm_count3,w
  4007  0313  1D03               	btfss	3,2
  4008  0314  2B16               	goto	u151_21
  4009  0315  2B17               	goto	u151_20
  4010  0316                     u151_21:
  4011  0316  2B18               	goto	i1l2071
  4012  0317                     u151_20:
  4013  0317                     i1l2069:
  4014                           
  4015                           ;PROYECTO_02.c: 266:             pwm_count3 = 0; }
  4016  0317  01E1               	clrf	_pwm_count3
  4017  0318                     i1l2071:
  4018                           
  4019                           ;PROYECTO_02.c: 269:         if (pwm_countP >= 255) {
  4020  0318  0A60               	incf	_pwm_countP,w
  4021  0319  1D03               	btfss	3,2
  4022  031A  2B1C               	goto	u152_21
  4023  031B  2B1D               	goto	u152_20
  4024  031C                     u152_21:
  4025  031C  2B1E               	goto	i1l2075
  4026  031D                     u152_20:
  4027  031D                     i1l2073:
  4028                           
  4029                           ;PROYECTO_02.c: 271:             pwm_countP = 0; }
  4030  031D  01E0               	clrf	_pwm_countP
  4031  031E                     i1l2075:
  4032                           
  4033                           ;PROYECTO_02.c: 274:         if (pwm_countT >= 255) {
  4034  031E  0A5F               	incf	_pwm_countT,w
  4035  031F  1D03               	btfss	3,2
  4036  0320  2B22               	goto	u153_21
  4037  0321  2B23               	goto	u153_20
  4038  0322                     u153_21:
  4039  0322  2B24               	goto	i1l2079
  4040  0323                     u153_20:
  4041  0323                     i1l2077:
  4042                           
  4043                           ;PROYECTO_02.c: 276:             pwm_countT = 0; }
  4044  0323  01DF               	clrf	_pwm_countT
  4045  0324                     i1l2079:
  4046                           
  4047                           ;PROYECTO_02.c: 279:         T0IF = 0;
  4048  0324  110B               	bcf	11,2	;volatile
  4049  0325                     i1l2081:
  4050                           
  4051                           ;PROYECTO_02.c: 283:     if (PIR1bits.RCIF) {
  4052  0325  1E8C               	btfss	12,5	;volatile
  4053  0326  2B28               	goto	u154_21
  4054  0327  2B29               	goto	u154_20
  4055  0328                     u154_21:
  4056  0328  2B2E               	goto	i1l2087
  4057  0329                     u154_20:
  4058  0329                     i1l2083:
  4059                           
  4060                           ;PROYECTO_02.c: 286:         carac = RCREG;
  4061  0329  081A               	movf	26,w	;volatile
  4062  032A  00A6               	movwf	??_isr
  4063  032B  0826               	movf	??_isr,w
  4064  032C  00DD               	movwf	_carac
  4065  032D                     i1l2085:
  4066                           
  4067                           ;PROYECTO_02.c: 287:         PIR1bits.RCIF = 0;
  4068  032D  128C               	bcf	12,5	;volatile
  4069  032E                     i1l2087:
  4070                           
  4071                           ;PROYECTO_02.c: 291:     if (RBIF){
  4072  032E  1C0B               	btfss	11,0	;volatile
  4073  032F  2B31               	goto	u155_21
  4074  0330  2B32               	goto	u155_20
  4075  0331                     u155_21:
  4076  0331  2B9A               	goto	i1l237
  4077  0332                     u155_20:
  4078  0332                     i1l2089:
  4079                           
  4080                           ;PROYECTO_02.c: 293:         RBIF = 0;
  4081  0332  100B               	bcf	11,0	;volatile
  4082                           
  4083                           ;PROYECTO_02.c: 295:         if (PORTBbits.RB0 == 0){
  4084  0333  0806               	movf	6,w	;volatile
  4085  0334                     i1l228:	
  4086                           ;PROYECTO_02.c: 297:         }
  4087                           
  4088                           
  4089                           ;PROYECTO_02.c: 299:         if (PORTBbits.RB3 == 0) {
  4090  0334  1986               	btfsc	6,3	;volatile
  4091  0335  2B37               	goto	u156_21
  4092  0336  2B38               	goto	u156_20
  4093  0337                     u156_21:
  4094  0337  2B83               	goto	i1l229
  4095  0338                     u156_20:
  4096  0338                     i1l2091:
  4097                           
  4098                           ;PROYECTO_02.c: 301:             state_eeprom = 0;
  4099  0338  01D3               	clrf	_state_eeprom
  4100  0339  01D4               	clrf	_state_eeprom+1
  4101                           
  4102                           ;PROYECTO_02.c: 303:             while (state_eeprom == 0) {
  4103  033A  2B7B               	goto	i1l2109
  4104  033B                     i1l231:
  4105                           
  4106                           ;PROYECTO_02.c: 305:                 PORTCbits.RC4 = 0;
  4107  033B  1207               	bcf	7,4	;volatile
  4108                           
  4109                           ;PROYECTO_02.c: 306:                 PORTCbits.RC3 = 1;
  4110  033C  1587               	bsf	7,3	;volatile
  4111  033D                     i1l2093:
  4112                           
  4113                           ;PROYECTO_02.c: 308:                 _delay((unsigned long)((500)*(4000000/4000.0)));
  4114  033D  3003               	movlw	3
  4115  033E  1283               	bcf	3,5	;RP0=0, select bank0
  4116  033F  1303               	bcf	3,6	;RP1=0, select bank0
  4117  0340  00A8               	movwf	??_isr+2
  4118  0341  308A               	movlw	138
  4119  0342  00A7               	movwf	??_isr+1
  4120  0343  3055               	movlw	85
  4121  0344  00A6               	movwf	??_isr
  4122  0345                     u226_27:
  4123  0345  0BA6               	decfsz	??_isr,f
  4124  0346  2B45               	goto	u226_27
  4125  0347  0BA7               	decfsz	??_isr+1,f
  4126  0348  2B45               	goto	u226_27
  4127  0349  0BA8               	decfsz	??_isr+2,f
  4128  034A  2B45               	goto	u226_27
  4129  034B                     i1l2095:
  4130                           
  4131                           ;PROYECTO_02.c: 310:                 if (RB1 == 0){
  4132  034B  1283               	bcf	3,5	;RP0=0, select bank0
  4133  034C  1303               	bcf	3,6	;RP1=0, select bank0
  4134  034D  1886               	btfsc	6,1	;volatile
  4135  034E  2B50               	goto	u157_21
  4136  034F  2B51               	goto	u157_20
  4137  0350                     u157_21:
  4138  0350  2B56               	goto	i1l2099
  4139  0351                     u157_20:
  4140  0351                     i1l2097:
  4141                           
  4142                           ;PROYECTO_02.c: 312:                     saveToEEPROM();
  4143  0351  120A  158A  27C7  120A  118A  	fcall	_saveToEEPROM
  4144  0356                     i1l2099:
  4145                           
  4146                           ;PROYECTO_02.c: 316:                 if (RB2 == 0){
  4147  0356  1283               	bcf	3,5	;RP0=0, select bank0
  4148  0357  1303               	bcf	3,6	;RP1=0, select bank0
  4149  0358  1906               	btfsc	6,2	;volatile
  4150  0359  2B5B               	goto	u158_21
  4151  035A  2B5C               	goto	u158_20
  4152  035B                     u158_21:
  4153  035B  2B61               	goto	i1l2103
  4154  035C                     u158_20:
  4155  035C                     i1l2101:
  4156                           
  4157                           ;PROYECTO_02.c: 318:                     readToEEPROM();
  4158  035C  120A  158A  270D  120A  118A  	fcall	_readToEEPROM
  4159  0361                     i1l2103:
  4160                           
  4161                           ;PROYECTO_02.c: 322:             if (PORTBbits.RB3 == 0) {
  4162  0361  1283               	bcf	3,5	;RP0=0, select bank0
  4163  0362  1303               	bcf	3,6	;RP1=0, select bank0
  4164  0363  1986               	btfsc	6,3	;volatile
  4165  0364  2B66               	goto	u159_21
  4166  0365  2B67               	goto	u159_20
  4167  0366                     u159_21:
  4168  0366  2B7B               	goto	i1l2109
  4169  0367                     u159_20:
  4170  0367                     i1l2105:
  4171                           
  4172                           ;PROYECTO_02.c: 324:                 PORTCbits.RC3 = 0;
  4173  0367  1187               	bcf	7,3	;volatile
  4174                           
  4175                           ;PROYECTO_02.c: 325:                 PORTCbits.RC4 = 1;
  4176  0368  1607               	bsf	7,4	;volatile
  4177  0369                     i1l2107:
  4178                           
  4179                           ;PROYECTO_02.c: 326:                 state_eeprom = 1;
  4180  0369  3001               	movlw	1
  4181  036A  00D3               	movwf	_state_eeprom
  4182  036B  3000               	movlw	0
  4183  036C  00D4               	movwf	_state_eeprom+1
  4184                           
  4185                           ;PROYECTO_02.c: 328:                 _delay((unsigned long)((500)*(4000000/4000.0)));
  4186  036D  3003               	movlw	3
  4187  036E  1283               	bcf	3,5	;RP0=0, select bank0
  4188  036F  1303               	bcf	3,6	;RP1=0, select bank0
  4189  0370  00A8               	movwf	??_isr+2
  4190  0371  308A               	movlw	138
  4191  0372  00A7               	movwf	??_isr+1
  4192  0373  3055               	movlw	85
  4193  0374  00A6               	movwf	??_isr
  4194  0375                     u227_27:
  4195  0375  0BA6               	decfsz	??_isr,f
  4196  0376  2B75               	goto	u227_27
  4197  0377  0BA7               	decfsz	??_isr+1,f
  4198  0378  2B75               	goto	u227_27
  4199  0379  0BA8               	decfsz	??_isr+2,f
  4200  037A  2B75               	goto	u227_27
  4201  037B                     i1l2109:
  4202                           
  4203                           ;PROYECTO_02.c: 303:             while (state_eeprom == 0) {
  4204  037B  1283               	bcf	3,5	;RP0=0, select bank0
  4205  037C  1303               	bcf	3,6	;RP1=0, select bank0
  4206  037D  0853               	movf	_state_eeprom,w
  4207  037E  0454               	iorwf	_state_eeprom+1,w
  4208  037F  1903               	btfsc	3,2
  4209  0380  2B82               	goto	u160_21
  4210  0381  2B83               	goto	u160_20
  4211  0382                     u160_21:
  4212  0382  2B3B               	goto	i1l231
  4213  0383                     u160_20:
  4214  0383                     i1l229:	
  4215                           ;PROYECTO_02.c: 331:         }
  4216                           
  4217                           
  4218                           ;PROYECTO_02.c: 333:         if (PORTBbits.RB0 == 0){
  4219  0383  1806               	btfsc	6,0	;volatile
  4220  0384  2B86               	goto	u161_21
  4221  0385  2B87               	goto	u161_20
  4222  0386                     u161_21:
  4223  0386  2B9A               	goto	i1l237
  4224  0387                     u161_20:
  4225  0387                     i1l2111:
  4226                           
  4227                           ;PROYECTO_02.c: 335:             parpadeo();
  4228  0387  120A  118A  2700  120A  118A  	fcall	i1_parpadeo
  4229  038C                     i1l2113:
  4230                           
  4231                           ;PROYECTO_02.c: 336:             _delay((unsigned long)((500)*(4000000/4000.0)));
  4232  038C  3003               	movlw	3
  4233  038D  1283               	bcf	3,5	;RP0=0, select bank0
  4234  038E  1303               	bcf	3,6	;RP1=0, select bank0
  4235  038F  00A8               	movwf	??_isr+2
  4236  0390  308A               	movlw	138
  4237  0391  00A7               	movwf	??_isr+1
  4238  0392  3055               	movlw	85
  4239  0393  00A6               	movwf	??_isr
  4240  0394                     u228_27:
  4241  0394  0BA6               	decfsz	??_isr,f
  4242  0395  2B94               	goto	u228_27
  4243  0396  0BA7               	decfsz	??_isr+1,f
  4244  0397  2B94               	goto	u228_27
  4245  0398  0BA8               	decfsz	??_isr+2,f
  4246  0399  2B94               	goto	u228_27
  4247  039A                     i1l237:
  4248  039A  1283               	bcf	3,5	;RP0=0, select bank0
  4249  039B  1303               	bcf	3,6	;RP1=0, select bank0
  4250  039C  082B               	movf	??_isr+5,w
  4251  039D  00FF               	movwf	btemp+1
  4252  039E  082A               	movf	??_isr+4,w
  4253  039F  008A               	movwf	10
  4254  03A0  0E29               	swapf	??_isr+3,w
  4255  03A1  0083               	movwf	3
  4256  03A2  0EFE               	swapf	btemp,f
  4257  03A3  0E7E               	swapf	btemp,w
  4258  03A4  0009               	retfie
  4259  03A5                     __end_of_isr:
  4260                           
  4261                           	psect	intentry
  4262  0004                     __pintentry:	
  4263                           ;incstack = 0
  4264                           ; Regs used in _isr: [wreg+status,2+status,0+btemp+1+pclath+cstack]
  4265                           
  4266  0004                     interrupt_function:
  4267  007E                     saved_w	set	btemp
  4268  0004  00FE               	movwf	btemp
  4269  0005  0E03               	swapf	3,w
  4270  0006  1283               	bcf	3,5	;RP0=0, select bank0
  4271  0007  1303               	bcf	3,6	;RP1=0, select bank0
  4272  0008  00A9               	movwf	??_isr+3
  4273  0009  080A               	movf	10,w
  4274  000A  00AA               	movwf	??_isr+4
  4275  000B  087F               	movf	btemp+1,w
  4276  000C  00AB               	movwf	??_isr+5
  4277  000D  120A  118A  2A92   	ljmp	_isr
  4278                           
  4279                           	psect	text18
  4280  0700                     __ptext18:	
  4281 ;; *************** function i1_parpadeo *****************
  4282 ;; Defined at:
  4283 ;;		line 728 in file "PROYECTO_02.c"
  4284 ;; Parameters:    Size  Location     Type
  4285 ;;		None
  4286 ;; Auto vars:     Size  Location     Type
  4287 ;;  i               2    4[BANK0 ] int 
  4288 ;; Return value:  Size  Location     Type
  4289 ;;                  1    wreg      void 
  4290 ;; Registers used:
  4291 ;;		wreg, status,2, status,0, btemp+1, pclath, cstack
  4292 ;; Tracked objects:
  4293 ;;		On entry : 0/0
  4294 ;;		On exit  : 0/0
  4295 ;;		Unchanged: 0/0
  4296 ;; Data sizes:     COMMON   BANK0   BANK1   BANK3   BANK2
  4297 ;;      Params:         0       0       0       0       0
  4298 ;;      Locals:         0       2       0       0       0
  4299 ;;      Temps:          2       0       0       0       0
  4300 ;;      Totals:         2       2       0       0       0
  4301 ;;Total ram usage:        4 bytes
  4302 ;; Hardware stack levels used: 1
  4303 ;; Hardware stack levels required when called: 1
  4304 ;; This function calls:
  4305 ;;		i1___awdiv
  4306 ;;		i1___wmul
  4307 ;; This function is called by:
  4308 ;;		_isr
  4309 ;; This function uses a non-reentrant model
  4310 ;;
  4311                           
  4312  0700                     i1_parpadeo:	
  4313                           ;psect for function i1_parpadeo
  4314                           
  4315  0700                     i1l2011:	
  4316                           ;incstack = 0
  4317                           ; Regs used in i1_parpadeo: [wreg+status,2+status,0+btemp+1+pclath+cstack]
  4318                           
  4319                           
  4320                           ;PROYECTO_02.c: 730:     duty_cycleP = 0;
  4321  0700  1283               	bcf	3,5	;RP0=0, select bank0
  4322  0701  1303               	bcf	3,6	;RP1=0, select bank0
  4323  0702  01CB               	clrf	_duty_cycleP
  4324  0703  01CC               	clrf	_duty_cycleP+1
  4325                           
  4326                           ;PROYECTO_02.c: 733:             for (int i = 0; i <= 20; i++) {
  4327  0704  01A4               	clrf	i1parpadeo@i
  4328  0705  01A5               	clrf	i1parpadeo@i+1
  4329  0706                     i1l2017:
  4330                           
  4331                           ;PROYECTO_02.c: 735:             duty_cycleP = (char) ((i * (0 - 20) / 20) + 20);
  4332  0706  3014               	movlw	20
  4333  0707  00F6               	movwf	i1___awdiv@divisor
  4334  0708  3000               	movlw	0
  4335  0709  00F7               	movwf	i1___awdiv@divisor+1
  4336  070A  1283               	bcf	3,5	;RP0=0, select bank0
  4337  070B  1303               	bcf	3,6	;RP1=0, select bank0
  4338  070C  0825               	movf	i1parpadeo@i+1,w
  4339  070D  00F1               	movwf	i1___wmul@multiplier+1
  4340  070E  0824               	movf	i1parpadeo@i,w
  4341  070F  00F0               	movwf	i1___wmul@multiplier
  4342  0710  30EC               	movlw	236
  4343  0711  00F2               	movwf	i1___wmul@multiplicand
  4344  0712  30FF               	movlw	255
  4345  0713  00F3               	movwf	i1___wmul@multiplicand+1
  4346  0714  120A  158A  2753  120A  118A  	fcall	i1___wmul
  4347  0719  0871               	movf	?i1___wmul+1,w
  4348  071A  00F9               	movwf	i1___awdiv@dividend+1
  4349  071B  0870               	movf	?i1___wmul,w
  4350  071C  00F8               	movwf	i1___awdiv@dividend
  4351  071D  120A  118A  2648  120A  118A  	fcall	i1___awdiv
  4352  0722  0876               	movf	?i1___awdiv,w
  4353  0723  3E14               	addlw	20
  4354  0724  00FB               	movwf	??i1_parpadeo
  4355  0725  01FC               	clrf	??i1_parpadeo+1
  4356  0726  087B               	movf	??i1_parpadeo,w
  4357  0727  1283               	bcf	3,5	;RP0=0, select bank0
  4358  0728  1303               	bcf	3,6	;RP1=0, select bank0
  4359  0729  00CB               	movwf	_duty_cycleP
  4360  072A  087C               	movf	??i1_parpadeo+1,w
  4361  072B  00CC               	movwf	_duty_cycleP+1
  4362  072C                     i1l2019:
  4363                           
  4364                           ;PROYECTO_02.c: 736:             _delay((unsigned long)((20)*(4000000/4000.0)));
  4365  072C  301A               	movlw	26
  4366  072D  00FC               	movwf	??i1_parpadeo+1
  4367  072E  30F8               	movlw	248
  4368  072F  00FB               	movwf	??i1_parpadeo
  4369  0730                     u229_27:
  4370  0730  0BFB               	decfsz	??i1_parpadeo,f
  4371  0731  2F30               	goto	u229_27
  4372  0732  0BFC               	decfsz	??i1_parpadeo+1,f
  4373  0733  2F30               	goto	u229_27
  4374  0734  0000               	nop
  4375  0735                     i1l2021:
  4376                           
  4377                           ;PROYECTO_02.c: 737:             }
  4378  0735  3001               	movlw	1
  4379  0736  1283               	bcf	3,5	;RP0=0, select bank0
  4380  0737  1303               	bcf	3,6	;RP1=0, select bank0
  4381  0738  07A4               	addwf	i1parpadeo@i,f
  4382  0739  1803               	skipnc
  4383  073A  0AA5               	incf	i1parpadeo@i+1,f
  4384  073B  3000               	movlw	0
  4385  073C  07A5               	addwf	i1parpadeo@i+1,f
  4386  073D                     i1l2023:
  4387  073D  0825               	movf	i1parpadeo@i+1,w
  4388  073E  3A80               	xorlw	128
  4389  073F  00FF               	movwf	btemp+1
  4390  0740  3080               	movlw	128
  4391  0741  027F               	subwf	btemp+1,w
  4392  0742  1D03               	skipz
  4393  0743  2F46               	goto	u142_25
  4394  0744  3015               	movlw	21
  4395  0745  0224               	subwf	i1parpadeo@i,w
  4396  0746                     u142_25:
  4397  0746  1C03               	skipc
  4398  0747  2F49               	goto	u142_21
  4399  0748  2F4A               	goto	u142_20
  4400  0749                     u142_21:
  4401  0749  2F06               	goto	i1l2017
  4402  074A                     u142_20:
  4403  074A                     i1l305:
  4404  074A  0008               	return
  4405  074B                     __end_ofi1_parpadeo:
  4406                           
  4407                           	psect	text19
  4408  0F53                     __ptext19:	
  4409 ;; *************** function i1___wmul *****************
  4410 ;; Defined at:
  4411 ;;		line 15 in file "C:\Program Files\Microchip\xc8\v2.35\pic\sources\c90\common\Umul16.c"
  4412 ;; Parameters:    Size  Location     Type
  4413 ;;  multiplier      2    0[COMMON] unsigned int 
  4414 ;;  multiplicand    2    2[COMMON] unsigned int 
  4415 ;; Auto vars:     Size  Location     Type
  4416 ;;  product         2    4[COMMON] unsigned int 
  4417 ;; Return value:  Size  Location     Type
  4418 ;;                  2    0[COMMON] unsigned int 
  4419 ;; Registers used:
  4420 ;;		wreg, status,2, status,0
  4421 ;; Tracked objects:
  4422 ;;		On entry : 0/0
  4423 ;;		On exit  : 0/0
  4424 ;;		Unchanged: 0/0
  4425 ;; Data sizes:     COMMON   BANK0   BANK1   BANK3   BANK2
  4426 ;;      Params:         4       0       0       0       0
  4427 ;;      Locals:         2       0       0       0       0
  4428 ;;      Temps:          0       0       0       0       0
  4429 ;;      Totals:         6       0       0       0       0
  4430 ;;Total ram usage:        6 bytes
  4431 ;; Hardware stack levels used: 1
  4432 ;; This function calls:
  4433 ;;		Nothing
  4434 ;; This function is called by:
  4435 ;;		i1_parpadeo
  4436 ;; This function uses a non-reentrant model
  4437 ;;
  4438                           
  4439  0F53                     i1___wmul:	
  4440                           ;psect for function i1___wmul
  4441                           
  4442  0F53                     i1l1719:	
  4443                           ;incstack = 0
  4444                           ; Regs used in i1___wmul: [wreg+status,2+status,0]
  4445                           
  4446  0F53  01F4               	clrf	i1___wmul@product
  4447  0F54  01F5               	clrf	i1___wmul@product+1
  4448  0F55                     i1l1721:
  4449  0F55  1C70               	btfss	i1___wmul@multiplier,0
  4450  0F56  2F58               	goto	u117_21
  4451  0F57  2F59               	goto	u117_20
  4452  0F58                     u117_21:
  4453  0F58  2F5F               	goto	i1l419
  4454  0F59                     u117_20:
  4455  0F59                     i1l1723:
  4456  0F59  0872               	movf	i1___wmul@multiplicand,w
  4457  0F5A  07F4               	addwf	i1___wmul@product,f
  4458  0F5B  1803               	skipnc
  4459  0F5C  0AF5               	incf	i1___wmul@product+1,f
  4460  0F5D  0873               	movf	i1___wmul@multiplicand+1,w
  4461  0F5E  07F5               	addwf	i1___wmul@product+1,f
  4462  0F5F                     i1l419:
  4463  0F5F  3001               	movlw	1
  4464  0F60                     u118_25:
  4465  0F60  1003               	clrc
  4466  0F61  0DF2               	rlf	i1___wmul@multiplicand,f
  4467  0F62  0DF3               	rlf	i1___wmul@multiplicand+1,f
  4468  0F63  3EFF               	addlw	-1
  4469  0F64  1D03               	skipz
  4470  0F65  2F60               	goto	u118_25
  4471  0F66                     i1l1725:
  4472  0F66  3001               	movlw	1
  4473  0F67                     u119_25:
  4474  0F67  1003               	clrc
  4475  0F68  0CF1               	rrf	i1___wmul@multiplier+1,f
  4476  0F69  0CF0               	rrf	i1___wmul@multiplier,f
  4477  0F6A  3EFF               	addlw	-1
  4478  0F6B  1D03               	skipz
  4479  0F6C  2F67               	goto	u119_25
  4480  0F6D                     i1l1727:
  4481  0F6D  0870               	movf	i1___wmul@multiplier,w
  4482  0F6E  0471               	iorwf	i1___wmul@multiplier+1,w
  4483  0F6F  1D03               	btfss	3,2
  4484  0F70  2F72               	goto	u120_21
  4485  0F71  2F73               	goto	u120_20
  4486  0F72                     u120_21:
  4487  0F72  2F55               	goto	i1l1721
  4488  0F73                     u120_20:
  4489  0F73                     i1l1729:
  4490  0F73  0875               	movf	i1___wmul@product+1,w
  4491  0F74  00F1               	movwf	?i1___wmul+1
  4492  0F75  0874               	movf	i1___wmul@product,w
  4493  0F76  00F0               	movwf	?i1___wmul
  4494  0F77                     i1l421:
  4495  0F77  0008               	return
  4496  0F78                     __end_ofi1___wmul:
  4497                           
  4498                           	psect	text20
  4499  0648                     __ptext20:	
  4500 ;; *************** function i1___awdiv *****************
  4501 ;; Defined at:
  4502 ;;		line 5 in file "C:\Program Files\Microchip\xc8\v2.35\pic\sources\c90\common\awdiv.c"
  4503 ;; Parameters:    Size  Location     Type
  4504 ;;  divisor         2    6[COMMON] int 
  4505 ;;  dividend        2    8[COMMON] int 
  4506 ;; Auto vars:     Size  Location     Type
  4507 ;;  quotient        2    2[BANK0 ] int 
  4508 ;;  sign            1    1[BANK0 ] unsigned char 
  4509 ;;  counter         1    0[BANK0 ] unsigned char 
  4510 ;; Return value:  Size  Location     Type
  4511 ;;                  2    6[COMMON] int 
  4512 ;; Registers used:
  4513 ;;		wreg, status,2, status,0
  4514 ;; Tracked objects:
  4515 ;;		On entry : 0/0
  4516 ;;		On exit  : 0/0
  4517 ;;		Unchanged: 0/0
  4518 ;; Data sizes:     COMMON   BANK0   BANK1   BANK3   BANK2
  4519 ;;      Params:         4       0       0       0       0
  4520 ;;      Locals:         0       4       0       0       0
  4521 ;;      Temps:          1       0       0       0       0
  4522 ;;      Totals:         5       4       0       0       0
  4523 ;;Total ram usage:        9 bytes
  4524 ;; Hardware stack levels used: 1
  4525 ;; This function calls:
  4526 ;;		Nothing
  4527 ;; This function is called by:
  4528 ;;		i1_parpadeo
  4529 ;; This function uses a non-reentrant model
  4530 ;;
  4531                           
  4532  0648                     i1___awdiv:	
  4533                           ;psect for function i1___awdiv
  4534                           
  4535  0648                     i1l1733:	
  4536                           ;incstack = 0
  4537                           ; Regs used in i1___awdiv: [wreg+status,2+status,0]
  4538                           
  4539  0648  1283               	bcf	3,5	;RP0=0, select bank0
  4540  0649  1303               	bcf	3,6	;RP1=0, select bank0
  4541  064A  01A1               	clrf	i1___awdiv@sign
  4542  064B                     i1l1735:
  4543  064B  1FF7               	btfss	i1___awdiv@divisor+1,7
  4544  064C  2E4E               	goto	u121_21
  4545  064D  2E4F               	goto	u121_20
  4546  064E                     u121_21:
  4547  064E  2E56               	goto	i1l1741
  4548  064F                     u121_20:
  4549  064F                     i1l1737:
  4550  064F  09F6               	comf	i1___awdiv@divisor,f
  4551  0650  09F7               	comf	i1___awdiv@divisor+1,f
  4552  0651  0AF6               	incf	i1___awdiv@divisor,f
  4553  0652  1903               	skipnz
  4554  0653  0AF7               	incf	i1___awdiv@divisor+1,f
  4555  0654                     i1l1739:
  4556  0654  01A1               	clrf	i1___awdiv@sign
  4557  0655  0AA1               	incf	i1___awdiv@sign,f
  4558  0656                     i1l1741:
  4559  0656  1FF9               	btfss	i1___awdiv@dividend+1,7
  4560  0657  2E59               	goto	u122_21
  4561  0658  2E5A               	goto	u122_20
  4562  0659                     u122_21:
  4563  0659  2E63               	goto	i1l1747
  4564  065A                     u122_20:
  4565  065A                     i1l1743:
  4566  065A  09F8               	comf	i1___awdiv@dividend,f
  4567  065B  09F9               	comf	i1___awdiv@dividend+1,f
  4568  065C  0AF8               	incf	i1___awdiv@dividend,f
  4569  065D  1903               	skipnz
  4570  065E  0AF9               	incf	i1___awdiv@dividend+1,f
  4571  065F                     i1l1745:
  4572  065F  3001               	movlw	1
  4573  0660  00FA               	movwf	??i1___awdiv
  4574  0661  087A               	movf	??i1___awdiv,w
  4575  0662  06A1               	xorwf	i1___awdiv@sign,f
  4576  0663                     i1l1747:
  4577  0663  01A2               	clrf	i1___awdiv@quotient
  4578  0664  01A3               	clrf	i1___awdiv@quotient+1
  4579  0665                     i1l1749:
  4580  0665  0876               	movf	i1___awdiv@divisor,w
  4581  0666  0477               	iorwf	i1___awdiv@divisor+1,w
  4582  0667  1903               	btfsc	3,2
  4583  0668  2E6A               	goto	u123_21
  4584  0669  2E6B               	goto	u123_20
  4585  066A                     u123_21:
  4586  066A  2EA2               	goto	i1l1769
  4587  066B                     u123_20:
  4588  066B                     i1l1751:
  4589  066B  01A0               	clrf	i1___awdiv@counter
  4590  066C  0AA0               	incf	i1___awdiv@counter,f
  4591  066D  2E79               	goto	i1l1757
  4592  066E                     i1l1753:
  4593  066E  3001               	movlw	1
  4594  066F                     u124_25:
  4595  066F  1003               	clrc
  4596  0670  0DF6               	rlf	i1___awdiv@divisor,f
  4597  0671  0DF7               	rlf	i1___awdiv@divisor+1,f
  4598  0672  3EFF               	addlw	-1
  4599  0673  1D03               	skipz
  4600  0674  2E6F               	goto	u124_25
  4601  0675                     i1l1755:
  4602  0675  3001               	movlw	1
  4603  0676  00FA               	movwf	??i1___awdiv
  4604  0677  087A               	movf	??i1___awdiv,w
  4605  0678  07A0               	addwf	i1___awdiv@counter,f
  4606  0679                     i1l1757:
  4607  0679  1FF7               	btfss	i1___awdiv@divisor+1,7
  4608  067A  2E7C               	goto	u125_21
  4609  067B  2E7D               	goto	u125_20
  4610  067C                     u125_21:
  4611  067C  2E6E               	goto	i1l1753
  4612  067D                     u125_20:
  4613  067D                     i1l1759:
  4614  067D  3001               	movlw	1
  4615  067E                     u126_25:
  4616  067E  1003               	clrc
  4617  067F  0DA2               	rlf	i1___awdiv@quotient,f
  4618  0680  0DA3               	rlf	i1___awdiv@quotient+1,f
  4619  0681  3EFF               	addlw	-1
  4620  0682  1D03               	skipz
  4621  0683  2E7E               	goto	u126_25
  4622  0684  0877               	movf	i1___awdiv@divisor+1,w
  4623  0685  0279               	subwf	i1___awdiv@dividend+1,w
  4624  0686  1D03               	skipz
  4625  0687  2E8A               	goto	u127_25
  4626  0688  0876               	movf	i1___awdiv@divisor,w
  4627  0689  0278               	subwf	i1___awdiv@dividend,w
  4628  068A                     u127_25:
  4629  068A  1C03               	skipc
  4630  068B  2E8D               	goto	u127_21
  4631  068C  2E8E               	goto	u127_20
  4632  068D                     u127_21:
  4633  068D  2E95               	goto	i1l1765
  4634  068E                     u127_20:
  4635  068E                     i1l1761:
  4636  068E  0876               	movf	i1___awdiv@divisor,w
  4637  068F  02F8               	subwf	i1___awdiv@dividend,f
  4638  0690  0877               	movf	i1___awdiv@divisor+1,w
  4639  0691  1C03               	skipc
  4640  0692  03F9               	decf	i1___awdiv@dividend+1,f
  4641  0693  02F9               	subwf	i1___awdiv@dividend+1,f
  4642  0694                     i1l1763:
  4643  0694  1422               	bsf	i1___awdiv@quotient,0
  4644  0695                     i1l1765:
  4645  0695  3001               	movlw	1
  4646  0696                     u128_25:
  4647  0696  1003               	clrc
  4648  0697  0CF7               	rrf	i1___awdiv@divisor+1,f
  4649  0698  0CF6               	rrf	i1___awdiv@divisor,f
  4650  0699  3EFF               	addlw	-1
  4651  069A  1D03               	skipz
  4652  069B  2E96               	goto	u128_25
  4653  069C                     i1l1767:
  4654  069C  3001               	movlw	1
  4655  069D  02A0               	subwf	i1___awdiv@counter,f
  4656  069E  1D03               	btfss	3,2
  4657  069F  2EA1               	goto	u129_21
  4658  06A0  2EA2               	goto	u129_20
  4659  06A1                     u129_21:
  4660  06A1  2E7D               	goto	i1l1759
  4661  06A2                     u129_20:
  4662  06A2                     i1l1769:
  4663  06A2  0821               	movf	i1___awdiv@sign,w
  4664  06A3  1903               	btfsc	3,2
  4665  06A4  2EA6               	goto	u130_21
  4666  06A5  2EA7               	goto	u130_20
  4667  06A6                     u130_21:
  4668  06A6  2EAC               	goto	i1l1773
  4669  06A7                     u130_20:
  4670  06A7                     i1l1771:
  4671  06A7  09A2               	comf	i1___awdiv@quotient,f
  4672  06A8  09A3               	comf	i1___awdiv@quotient+1,f
  4673  06A9  0AA2               	incf	i1___awdiv@quotient,f
  4674  06AA  1903               	skipnz
  4675  06AB  0AA3               	incf	i1___awdiv@quotient+1,f
  4676  06AC                     i1l1773:
  4677  06AC  0823               	movf	i1___awdiv@quotient+1,w
  4678  06AD  00F7               	movwf	?i1___awdiv+1
  4679  06AE  0822               	movf	i1___awdiv@quotient,w
  4680  06AF  00F6               	movwf	?i1___awdiv
  4681  06B0                     i1l572:
  4682  06B0  0008               	return
  4683  06B1                     __end_ofi1___awdiv:
  4684                           
  4685                           	psect	text21
  4686  0FC7                     __ptext21:	
  4687 ;; *************** function _saveToEEPROM *****************
  4688 ;; Defined at:
  4689 ;;		line 99 in file "PROYECTO_02.c"
  4690 ;; Parameters:    Size  Location     Type
  4691 ;;		None
  4692 ;; Auto vars:     Size  Location     Type
  4693 ;;  address         1    0        unsigned char 
  4694 ;;  data            1    2[COMMON] unsigned char 
  4695 ;; Return value:  Size  Location     Type
  4696 ;;                  1    wreg      void 
  4697 ;; Registers used:
  4698 ;;		wreg, status,0
  4699 ;; Tracked objects:
  4700 ;;		On entry : 0/0
  4701 ;;		On exit  : 0/0
  4702 ;;		Unchanged: 0/0
  4703 ;; Data sizes:     COMMON   BANK0   BANK1   BANK3   BANK2
  4704 ;;      Params:         0       0       0       0       0
  4705 ;;      Locals:         1       0       0       0       0
  4706 ;;      Temps:          2       0       0       0       0
  4707 ;;      Totals:         3       0       0       0       0
  4708 ;;Total ram usage:        3 bytes
  4709 ;; Hardware stack levels used: 1
  4710 ;; This function calls:
  4711 ;;		Nothing
  4712 ;; This function is called by:
  4713 ;;		_isr
  4714 ;; This function uses a non-reentrant model
  4715 ;;
  4716                           
  4717  0FC7                     _saveToEEPROM:	
  4718                           ;psect for function _saveToEEPROM
  4719                           
  4720  0FC7                     i1l1777:	
  4721                           ;incstack = 0
  4722                           ; Regs used in _saveToEEPROM: [wreg+status,0]
  4723                           
  4724                           
  4725                           ;PROYECTO_02.c: 102:     uint8_t data = ADRESH;
  4726  0FC7  1283               	bcf	3,5	;RP0=0, select bank0
  4727  0FC8  1303               	bcf	3,6	;RP1=0, select bank0
  4728  0FC9  081E               	movf	30,w	;volatile
  4729  0FCA  00F0               	movwf	??_saveToEEPROM
  4730  0FCB  0870               	movf	??_saveToEEPROM,w
  4731  0FCC  00F2               	movwf	saveToEEPROM@data
  4732  0FCD                     i1l171:	
  4733                           ;PROYECTO_02.c: 104:     while(EECON1bits.WR);
  4734                           
  4735  0FCD  1683               	bsf	3,5	;RP0=1, select bank3
  4736  0FCE  1703               	bsf	3,6	;RP1=1, select bank3
  4737  0FCF  188C               	btfsc	12,1	;volsfr
  4738  0FD0  2FD2               	goto	u131_21
  4739  0FD1  2FD3               	goto	u131_20
  4740  0FD2                     u131_21:
  4741  0FD2  2FCD               	goto	i1l171
  4742  0FD3                     u131_20:
  4743  0FD3                     i1l1779:
  4744                           
  4745                           ;PROYECTO_02.c: 106:     EEADR = address;
  4746  0FD3  3086               	movlw	134
  4747  0FD4  1283               	bcf	3,5	;RP0=0, select bank2
  4748  0FD5  1703               	bsf	3,6	;RP1=1, select bank2
  4749  0FD6  008D               	movwf	13	;volatile
  4750                           
  4751                           ;PROYECTO_02.c: 107:     EEDATA = data;
  4752  0FD7  0872               	movf	saveToEEPROM@data,w
  4753  0FD8  008C               	movwf	12	;volatile
  4754  0FD9                     i1l1781:
  4755                           
  4756                           ;PROYECTO_02.c: 108:     EECON1bits.EEPGD = 0;
  4757  0FD9  1683               	bsf	3,5	;RP0=1, select bank3
  4758  0FDA  1703               	bsf	3,6	;RP1=1, select bank3
  4759  0FDB  138C               	bcf	12,7	;volsfr
  4760  0FDC                     i1l1783:
  4761                           
  4762                           ;PROYECTO_02.c: 109:     EECON1bits.WREN = 1;
  4763  0FDC  150C               	bsf	12,2	;volsfr
  4764  0FDD                     i1l1785:
  4765                           
  4766                           ;PROYECTO_02.c: 110:     INTCONbits.GIE = 0;
  4767  0FDD  138B               	bcf	11,7	;volatile
  4768                           
  4769                           ;PROYECTO_02.c: 111:     EECON2 = 0x55;
  4770  0FDE  3055               	movlw	85
  4771  0FDF  008D               	movwf	13	;volsfr
  4772                           
  4773                           ;PROYECTO_02.c: 112:     EECON2 = 0xAA;
  4774  0FE0  30AA               	movlw	170
  4775  0FE1  008D               	movwf	13	;volsfr
  4776  0FE2                     i1l1787:
  4777                           
  4778                           ;PROYECTO_02.c: 113:     EECON1bits.WR = 1;
  4779  0FE2  148C               	bsf	12,1	;volsfr
  4780  0FE3                     i1l1789:
  4781                           
  4782                           ;PROYECTO_02.c: 115:     EECON1bits.WREN = 0;
  4783  0FE3  110C               	bcf	12,2	;volsfr
  4784                           
  4785                           ;PROYECTO_02.c: 117:     _delay((unsigned long)((10)*(4000000/4000.0)));
  4786  0FE4  300D               	movlw	13
  4787  0FE5  00F1               	movwf	??_saveToEEPROM+1
  4788  0FE6  30FB               	movlw	251
  4789  0FE7  00F0               	movwf	??_saveToEEPROM
  4790  0FE8                     u230_27:
  4791  0FE8  0BF0               	decfsz	??_saveToEEPROM,f
  4792  0FE9  2FE8               	goto	u230_27
  4793  0FEA  0BF1               	decfsz	??_saveToEEPROM+1,f
  4794  0FEB  2FE8               	goto	u230_27
  4795  0FEC  2FED               	nop2
  4796                           
  4797                           ;PROYECTO_02.c: 119:     EEADR = address;
  4798  0FED  3086               	movlw	134
  4799  0FEE  1283               	bcf	3,5	;RP0=0, select bank2
  4800  0FEF  1703               	bsf	3,6	;RP1=1, select bank2
  4801  0FF0  008D               	movwf	13	;volatile
  4802  0FF1                     i1l1791:
  4803                           
  4804                           ;PROYECTO_02.c: 120:     EECON1bits.EEPGD = 0;
  4805  0FF1  1683               	bsf	3,5	;RP0=1, select bank3
  4806  0FF2  1703               	bsf	3,6	;RP1=1, select bank3
  4807  0FF3  138C               	bcf	12,7	;volsfr
  4808  0FF4                     i1l1793:
  4809                           
  4810                           ;PROYECTO_02.c: 121:     EECON1bits.RD = 1;
  4811  0FF4  140C               	bsf	12,0	;volsfr
  4812  0FF5                     i1l1795:
  4813                           
  4814                           ;PROYECTO_02.c: 122:     PORTCbits.RC2 = EEDATA;
  4815  0FF5  1283               	bcf	3,5	;RP0=0, select bank2
  4816  0FF6  1703               	bsf	3,6	;RP1=1, select bank2
  4817  0FF7  0C0C               	rrf	12,w	;volatile
  4818  0FF8  1283               	bcf	3,5	;RP0=0, select bank0
  4819  0FF9  1303               	bcf	3,6	;RP1=0, select bank0
  4820  0FFA  1C03               	skipc
  4821  0FFB  1107               	bcf	7,2	;volatile
  4822  0FFC  1803               	skipnc
  4823  0FFD  1507               	bsf	7,2	;volatile
  4824  0FFE                     i1l1797:
  4825                           
  4826                           ;PROYECTO_02.c: 123:     INTCONbits.GIE = 1;
  4827  0FFE  178B               	bsf	11,7	;volatile
  4828  0FFF                     i1l174:
  4829  0FFF  0008               	return
  4830  1000                     __end_of_saveToEEPROM:
  4831                           
  4832                           	psect	text22
  4833  0F0D                     __ptext22:	
  4834 ;; *************** function _readToEEPROM *****************
  4835 ;; Defined at:
  4836 ;;		line 126 in file "PROYECTO_02.c"
  4837 ;; Parameters:    Size  Location     Type
  4838 ;;		None
  4839 ;; Auto vars:     Size  Location     Type
  4840 ;;  address         1    0        unsigned char 
  4841 ;; Return value:  Size  Location     Type
  4842 ;;                  1    wreg      void 
  4843 ;; Registers used:
  4844 ;;		wreg, status,0
  4845 ;; Tracked objects:
  4846 ;;		On entry : 0/0
  4847 ;;		On exit  : 0/0
  4848 ;;		Unchanged: 0/0
  4849 ;; Data sizes:     COMMON   BANK0   BANK1   BANK3   BANK2
  4850 ;;      Params:         0       0       0       0       0
  4851 ;;      Locals:         0       0       0       0       0
  4852 ;;      Temps:          0       0       0       0       0
  4853 ;;      Totals:         0       0       0       0       0
  4854 ;;Total ram usage:        0 bytes
  4855 ;; Hardware stack levels used: 1
  4856 ;; This function calls:
  4857 ;;		Nothing
  4858 ;; This function is called by:
  4859 ;;		_isr
  4860 ;; This function uses a non-reentrant model
  4861 ;;
  4862                           
  4863  0F0D                     _readToEEPROM:	
  4864                           ;psect for function _readToEEPROM
  4865                           
  4866  0F0D                     i1l1799:	
  4867                           ;incstack = 0
  4868                           ; Regs used in _readToEEPROM: [wreg+status,0]
  4869                           
  4870                           
  4871                           ;PROYECTO_02.c: 130:     EEADR = address;
  4872  0F0D  3007               	movlw	7
  4873  0F0E  1283               	bcf	3,5	;RP0=0, select bank2
  4874  0F0F  1703               	bsf	3,6	;RP1=1, select bank2
  4875  0F10  008D               	movwf	13	;volatile
  4876  0F11                     i1l1801:
  4877                           
  4878                           ;PROYECTO_02.c: 131:     EECON1bits.EEPGD = 0;
  4879  0F11  1683               	bsf	3,5	;RP0=1, select bank3
  4880  0F12  1703               	bsf	3,6	;RP1=1, select bank3
  4881  0F13  138C               	bcf	12,7	;volsfr
  4882  0F14                     i1l1803:
  4883                           
  4884                           ;PROYECTO_02.c: 132:     EECON1bits.RD = 1;
  4885  0F14  140C               	bsf	12,0	;volsfr
  4886  0F15                     i1l1805:
  4887                           
  4888                           ;PROYECTO_02.c: 133:     PORTCbits.RC2 = EEDATA;
  4889  0F15  1283               	bcf	3,5	;RP0=0, select bank2
  4890  0F16  1703               	bsf	3,6	;RP1=1, select bank2
  4891  0F17  0C0C               	rrf	12,w	;volatile
  4892  0F18  1283               	bcf	3,5	;RP0=0, select bank0
  4893  0F19  1303               	bcf	3,6	;RP1=0, select bank0
  4894  0F1A  1C03               	skipc
  4895  0F1B  1107               	bcf	7,2	;volatile
  4896  0F1C  1803               	skipnc
  4897  0F1D  1507               	bsf	7,2	;volatile
  4898  0F1E                     i1l177:
  4899  0F1E  0008               	return
  4900  0F1F                     __end_of_readToEEPROM:
  4901  007E                     btemp	set	126	;btemp
  4902  007E                     wtemp0	set	126
  4903                           
  4904                           	psect	idloc
  4905                           
  4906                           ;Config register IDLOC0 @ 0x2000
  4907                           ;	unspecified, using default values
  4908  2000                     	org	8192
  4909  2000  3FFF               	dw	16383
  4910                           
  4911                           ;Config register IDLOC1 @ 0x2001
  4912                           ;	unspecified, using default values
  4913  2001                     	org	8193
  4914  2001  3FFF               	dw	16383
  4915                           
  4916                           ;Config register IDLOC2 @ 0x2002
  4917                           ;	unspecified, using default values
  4918  2002                     	org	8194
  4919  2002  3FFF               	dw	16383
  4920                           
  4921                           ;Config register IDLOC3 @ 0x2003
  4922                           ;	unspecified, using default values
  4923  2003                     	org	8195
  4924  2003  3FFF               	dw	16383
  4925                           
  4926                           	psect	config
  4927                           
  4928                           ;Config register CONFIG1 @ 0x2007
  4929                           ;	Oscillator Selection bits
  4930                           ;	FOSC = INTRC_NOCLKOUT, INTOSCIO oscillator: I/O function on RA6/OSC2/CLKOUT pin, I/O f
      +                          unction on RA7/OSC1/CLKIN
  4931                           ;	Watchdog Timer Enable bit
  4932                           ;	WDTE = OFF, WDT disabled and can be enabled by SWDTEN bit of the WDTCON register
  4933                           ;	Power-up Timer Enable bit
  4934                           ;	PWRTE = OFF, PWRT disabled
  4935                           ;	RE3/MCLR pin function select bit
  4936                           ;	MCLRE = OFF, RE3/MCLR pin function is digital input, MCLR internally tied to VDD
  4937                           ;	Code Protection bit
  4938                           ;	CP = OFF, Program memory code protection is disabled
  4939                           ;	Data Code Protection bit
  4940                           ;	CPD = OFF, Data memory code protection is disabled
  4941                           ;	Brown Out Reset Selection bits
  4942                           ;	BOREN = OFF, BOR disabled
  4943                           ;	Internal External Switchover bit
  4944                           ;	IESO = OFF, Internal/External Switchover mode is disabled
  4945                           ;	Fail-Safe Clock Monitor Enabled bit
  4946                           ;	FCMEN = OFF, Fail-Safe Clock Monitor is disabled
  4947                           ;	Low Voltage Programming Enable bit
  4948                           ;	LVP = OFF, RB3 pin has digital I/O, HV on MCLR must be used for programming
  4949                           ;	In-Circuit Debugger Mode bit
  4950                           ;	DEBUG = 0x1, unprogrammed default
  4951  2007                     	org	8199
  4952  2007  20D4               	dw	8404
  4953                           
  4954                           ;Config register CONFIG2 @ 0x2008
  4955                           ;	Brown-out Reset Selection bit
  4956                           ;	BOR4V = BOR40V, Brown-out Reset set to 4.0V
  4957                           ;	Flash Program Memory Self Write Enable bits
  4958                           ;	WRT = OFF, Write protection off
  4959  2008                     	org	8200
  4960  2008  3FFF               	dw	16383

Data Sizes:
    Strings     219
    Constant    10
    Data        2
    BSS         36
    Persistent  0
    Stack       0

Auto Spaces:
    Space          Size  Autos    Used
    COMMON           14     13      14
    BANK0            80     41      68
    BANK1            80     12      22
    BANK3            96      0       0
    BANK2            96      0       0

Pointer List with Targets:

    sprintf@f	PTR const unsigned char  size(1) Largest target is 3
		 -> STR_6(CODE[3]), STR_4(CODE[3]), STR_2(CODE[3]), 

    sprintf@sp	PTR unsigned char  size(1) Largest target is 4
		 -> main@valorazulStr(BANK1[4]), main@valorverdeStr(BANK1[4]), main@valorrojoStr(BANK1[4]), 

    sprintf@ap	PTR void [1] size(1) Largest target is 2
		 -> ?_sprintf(BANK0[2]), 

    cadena@txt	PTR unsigned char  size(2) Largest target is 76
		 -> STR_9(CODE[24]), STR_8(CODE[22]), STR_7(CODE[31]), main@valorazulStr(BANK1[4]), 
		 -> STR_5(CODE[32]), main@valorverdeStr(BANK1[4]), STR_3(CODE[31]), main@valorrojoStr(BANK1[4]), 
		 -> STR_1(CODE[76]), 


Critical Paths under _main in COMMON

    None.

Critical Paths under _isr in COMMON

    _isr->i1_parpadeo
    i1_parpadeo->i1___awdiv
    i1___awdiv->i1___wmul

Critical Paths under _main in BANK0

    _main->_map
    _main->_sprintf
    _sprintf->___lwmod
    ___lwmod->___lwdiv
    _parpadeo->___awdiv
    _map->___awdiv
    ___awdiv->___wmul
    _enter->_enviar_caracter
    _cadena->_enviar_caracter

Critical Paths under _isr in BANK0

    _isr->i1_parpadeo
    i1_parpadeo->i1___awdiv

Critical Paths under _main in BANK1

    None.

Critical Paths under _isr in BANK1

    None.

Critical Paths under _main in BANK3

    None.

Critical Paths under _isr in BANK3

    None.

Critical Paths under _main in BANK2

    None.

Critical Paths under _isr in BANK2

    None.

Call Graph Tables:

 ---------------------------------------------------------------------------------
 (Depth) Function   	        Calls       Base Space   Used Autos Params    Refs
 ---------------------------------------------------------------------------------
 (0) _main                                                14    14      0    6972
                                             39 BANK0      2     2      0
                                              0 BANK1     12    12      0
                             _cadena
                              _enter
                                _map
                           _parpadeo
                              _setup
                           _setupADC
                           _setupPWM
                          _setupTMR0
                          _setupTMR2
                         _setup_UART
                            _sprintf
 ---------------------------------------------------------------------------------
 (1) _sprintf                                             21    18      3    1907
                                             26 BANK0     13    10      3
                            ___lwdiv
                            ___lwmod
 ---------------------------------------------------------------------------------
 (2) ___lwmod                                              6     2      4     412
                                             20 BANK0      6     2      4
                            ___lwdiv (ARG)
 ---------------------------------------------------------------------------------
 (2) ___lwdiv                                              8     4      4     421
                                             12 BANK0      8     4      4
 ---------------------------------------------------------------------------------
 (1) _setup_UART                                           0     0      0       0
 ---------------------------------------------------------------------------------
 (1) _setupTMR2                                            0     0      0       0
 ---------------------------------------------------------------------------------
 (1) _setupTMR0                                            0     0      0       0
 ---------------------------------------------------------------------------------
 (1) _setupPWM                                             0     0      0       0
 ---------------------------------------------------------------------------------
 (1) _setupADC                                             1     1      0       0
                                             12 BANK0      1     1      0
 ---------------------------------------------------------------------------------
 (1) _setup                                                0     0      0       0
 ---------------------------------------------------------------------------------
 (1) _parpadeo                                             4     4      0    1400
                                             27 BANK0      4     4      0
                            ___awdiv
                             ___wmul
 ---------------------------------------------------------------------------------
 (1) _map                                                 12     2     10    2452
                                             27 BANK0     12     2     10
                            ___awdiv
                             ___wmul
 ---------------------------------------------------------------------------------
 (2) ___wmul                                               6     2      4     496
                                             12 BANK0      6     2      4
 ---------------------------------------------------------------------------------
 (2) ___awdiv                                              9     5      4     805
                                             18 BANK0      9     5      4
                             ___wmul (ARG)
 ---------------------------------------------------------------------------------
 (1) _enter                                                0     0      0      31
                    _enviar_caracter
 ---------------------------------------------------------------------------------
 (1) _cadena                                               2     0      2     906
                                             13 BANK0      2     0      2
                    _enviar_caracter
 ---------------------------------------------------------------------------------
 (2) _enviar_caracter                                      1     1      0      31
                                             12 BANK0      1     1      0
 ---------------------------------------------------------------------------------
 Estimated maximum stack depth 2
 ---------------------------------------------------------------------------------
 (Depth) Function   	        Calls       Base Space   Used Autos Params    Refs
 ---------------------------------------------------------------------------------
 (3) _isr                                                  6     6      0     655
                                              6 BANK0      6     6      0
                       _readToEEPROM
                       _saveToEEPROM
                         i1_parpadeo
 ---------------------------------------------------------------------------------
 (4) i1_parpadeo                                           4     4      0     564
                                             11 COMMON     2     2      0
                                              4 BANK0      2     2      0
                          i1___awdiv
                           i1___wmul
 ---------------------------------------------------------------------------------
 (5) i1___wmul                                             6     2      4     144
                                              0 COMMON     6     2      4
 ---------------------------------------------------------------------------------
 (5) i1___awdiv                                            9     5      4     352
                                              6 COMMON     5     1      4
                                              0 BANK0      4     4      0
                           i1___wmul (ARG)
 ---------------------------------------------------------------------------------
 (4) _saveToEEPROM                                         4     4      0      68
                                              0 COMMON     3     3      0
 ---------------------------------------------------------------------------------
 (4) _readToEEPROM                                         1     1      0      23
 ---------------------------------------------------------------------------------
 Estimated maximum stack depth 5
 ---------------------------------------------------------------------------------

 Call Graph Graphs:

 _main (ROOT)
   _cadena
     _enviar_caracter
   _enter
     _enviar_caracter
   _map
     ___awdiv
       ___wmul (ARG)
     ___wmul
   _parpadeo
     ___awdiv
     ___wmul
   _setup
   _setupADC
   _setupPWM
   _setupTMR0
   _setupTMR2
   _setup_UART
   _sprintf
     ___lwdiv
     ___lwmod
       ___lwdiv (ARG)

 _isr (ROOT)
   _readToEEPROM
   _saveToEEPROM
   i1_parpadeo
     i1___awdiv
       i1___wmul (ARG)
     i1___wmul

 Address spaces:
Name               Size   Autos  Total    Cost      Usage
BANK3               60      0       0       9        0.0%
BITBANK3            60      0       0       8        0.0%
SFR3                 0      0       0       4        0.0%
BITSFR3              0      0       0       4        0.0%
BANK2               60      0       0      11        0.0%
BITBANK2            60      0       0      10        0.0%
SFR2                 0      0       0       5        0.0%
BITSFR2              0      0       0       5        0.0%
BANK1               50      C      16       7       27.5%
BITBANK1            50      0       0       6        0.0%
SFR1                 0      0       0       2        0.0%
BITSFR1              0      0       0       2        0.0%
BANK0               50     29      44       5       85.0%
BITBANK0            50      0       0       4        0.0%
SFR0                 0      0       0       1        0.0%
BITSFR0              0      0       0       1        0.0%
COMMON               E      D       E       1      100.0%
BITCOMMON            E      0       0       0        0.0%
CODE                 0      0       0       0        0.0%
DATA                 0      0      68      12        0.0%
ABS                  0      0      68       3        0.0%
NULL                 0      0       0       0        0.0%
STACK                0      0       0       2        0.0%
EEDATA             100      0       0       0        0.0%


Microchip Technology PIC Macro Assembler V2.35 build 20211206165544 
Symbol Table                                                                                   Thu Jun 01 17:22:26 2023

                      pc 0002             ___awdiv@sign 0038                       fsr 0004  
    ___wmul@multiplicand 002E         i1___wmul@product 0074                      l300 0EFF  
                    l240 03DD                      l305 06FF                      l421 0F9E  
                    l261 028D                      l253 0286                      l270 0F34  
                    l415 05DE                      l273 03FC                      l282 0F0C  
                    l291 07FF                      l419 0F86                      l267 07F5  
                    l259 0289                      l276 0EED                      l285 0F52  
                    l701 07CC                      l278 0EF1                      l279 0EF2  
                    l288 07F9                      l297 0FC6                      l572 0647  
                    l691 0790                      _RB1 0031                      _RB2 0032  
                    _PR2 0092             _state_eeprom 0053                      _map 03A5  
                    _isr 0292                      fsr0 0004                      indf 0000  
                   l2301 05F6                     l2311 060C                     l2303 05FA  
                   l2321 062C                     l2313 0610                     l2305 05FC  
                   l2401 07CD                     l2323 0633                     l2315 0614  
                   l2307 0602                     l2411 07DB                     l2403 07D1  
                   l2317 0625                     l2309 0605                     l2325 0639  
                   l2421 07E7                     l2413 07DE                     l2405 07D2  
                   l2501 0F44                     l2341 075F                     l2333 074B  
                   l2271 07F9                     l2327 063E                     l2319 062B  
                   l2431 07EC                     l2423 07E8                     l2415 07DF  
                   l2407 07D6                     l2511 0F51                     l2503 0F47  
                   l2351 077F                     l2343 0763                     l2335 074F  
                   l2273 07FD                     l2513 0F9F                     l2521 0EF3  
                   l2329 0643                     l2281 0F8D                     l2441 07F1  
                   l2433 07ED                     l2425 07E9                     l2417 07E0  
                   l2409 07D8                     l2505 0F48                     l2353 0786  
                   l2345 0767                     l2337 0755                     l2361 0799  
                   l2601 0085                     l2515 0FA0                     l2291 05E2  
                   l2283 0F94                     l2275 0F78                     l2443 07F2  
                   l2435 07EE                     l2427 07EA                     l2419 07E1  
                   l2451 0F28                     l2507 0F4B                     l2347 0778  
                   l2339 0758                     l2355 078C                     l2371 07B5  
                   l2363 079C                     l2531 050F                     l2523 04F8  
                   l2611 00DB                     l2603 0090                     l2517 0FAE  
                   l2293 05E6                     l2285 0F9A                     l2277 0F7C  
                   l2381 06B1                     l2445 07F3                     l2437 07EF  
                   l2429 07EB                     l2453 0F2C                     l2461 0F08  
                   l2509 0F4E                     l2349 077E                     l2373 07BB  
                   l2365 07A3                     l2541 0539                     l2525 04FD  
                   l2701 0256                     l2621 0105                     l2613 00E6  
                   l2605 009B                     l2519 0FB6                     l2295 05EB  
                   l2279 0F80                     l2391 06EA                     l2447 07F4  
                   l2439 07F0                     l2455 0F2D                     l2471 03E2  
                   l2463 0EE7                     l2375 07C2                     l2367 07A7  
                   l2359 0791                     l2543 053D                     l2535 0510  
                   l2527 0503                     l2711 027E                     l2703 025C  
                   l2631 0124                     l2623 010A                     l2615 00FB  
                   l2607 00C6                     l2297 05ED                     l2289 05DF  
                   l2393 06F2                     l2449 0F1F                     l2481 03F2  
                   l2473 03E4                     l2457 0F00                     l2465 0EEA  
                   l2369 07AB                     l2377 07C8                     l2561 0574  
                   l2553 0548                     l2545 0541                     l2537 052D  
                   l2529 050A                     l2713 027F                     l2705 027B  
                   l2641 013D                     l2633 0127                     l2625 010F  
                   l2617 00FE                     l2609 00CB                     l2299 05F1  
                   l2395 03A5                     l2387 06B7                     l2491 03FB  
                   l2483 03F4                     l2475 03E8                     l2459 0F04  
                   l2467 0EEC                     l2571 05BB                     l2563 057B  
                   l2547 0546                     l2539 0535                     l2715 0282  
                   l2707 027C                     l2643 0148                     l2651 0156  
                   l2627 011A                     l2635 0128                     l2619 00FF  
                   l2397 03D9                     l2389 06DF                     l2485 03F6  
                   l2477 03EC                     l2469 03DE                     l2493 0F35  
                   l2573 05BF                     l2565 057F                     l2557 0564  
                   l2741 0522                     l2709 027D                     l2661 0187  
                   l2653 015B                     l2645 014D                     l2637 012E  
                   l2629 011F                     l2487 03F7                     l2479 03F0  
                   l2495 0F3C                     l2567 0584                     l2559 056E  
                   l2575 05C8                     l2671 01BA                     l2719 0286  
                   l2655 0162                     l2663 0195                     l2647 0152  
                   l2639 0138                     l2591 005D                     l2489 03F8  
                   l2497 0F40                     l2569 05B4                     l2577 05DA  
                   l2681 01FC                     l2665 019A                     l2673 01D6  
                   l2657 017A                     l2649 0155                     l2593 0066  
                   l2585 0037                     l2499 0F41                     l2691 023F  
                   l2675 01DC                     l2683 0218                     l2667 01A1  
                   l2659 017B                     l2595 006A                     l2587 0055  
                   l2693 0240                     l2685 021E                     l2677 01E3  
                   l2669 01B9                     l2597 0070                     l2589 0058  
                   ?_map 003B                     l2695 0241                     l2687 023D  
                   l2679 01FB                     l2599 0075                     l2697 0244  
                   l2689 023E                     l2699 024A                     _ADIF 0066  
                   ?_isr 0070                     STR_1 041A                     STR_2 04F2  
                   STR_3 04A5                     STR_4 04F2                     STR_5 0466  
                   STR_6 04F2                     STR_7 0486                     STR_8 04DC  
                   STR_9 04C4                     _T0IF 005A                     u2000 06FF  
                   u2001 06FE                     u2010 0EF1                     u2011 0EF0  
                   u2020 0FC6                     u2100 005D                     u2021 0FC5  
                   u2005 06FB                     u2101 005C                     u2030 0503  
                   u2110 0070                     u2031 0502                     u2111 006F  
                   u2040 053D                     u2120 0105                     u2041 053C  
                   u2121 0104                     u2050 0563                     u2130 012E  
                   u2051 0562                     u2131 012D                     u2060 056E  
                   u2140 015B                     u2061 056D                     u2141 015A  
                   u2070 0574                     u2150 019A                     u2071 0573  
                   u2055 055F                     u2151 0199                     u2207 018F  
                   u2080 05C8                     u2160 01DC                     u2081 05C7  
                   u2161 01DB                     u2217 01D0                     u2090 05DA  
                   u2170 021E                     u2091 05D9                     u2171 021D  
                   u2227 0212                     u2180 025C                     u2181 025B  
                   u2237 0250                     u2190 028D                     u2247 0F31  
                   u2191 028C                     u1720 07FD                     u1721 07FC  
                   u2257 06E5                     u1810 0614                     u1730 0F80  
                   u1811 0613                     u1731 0F7F                     u1805 0606  
                   u1830 0625                     u1910 0778                     u1831 0624  
                   u1911 0777                     u1760 0F9A                     u1825 0615  
                   u1761 0F99                     u1745 0F87                     u1905 0768  
                   u1850 0639                     u1770 05E6                     u1930 078C  
                   u1851 0638                     u1835 0621                     u1771 05E5  
                   u1755 0F8E                     u1931 078B                     u1915 0774  
                   u1860 063E                     u1780 05F1                     u1940 0799  
                   u1861 063D                     u1845 062D                     u1781 05F0  
                   u1925 0780                     u1941 0798                     u1790 0602  
                   u1870 0755                     u1791 0601                     u1871 0754  
                   u1960 07AB                     u1961 07AA                     u1890 0767  
                   u1970 07B5                     u1891 0766                     u1971 07B4  
                   u1955 079D                     u1885 0759                     u1990 07C8  
                   u1991 07C7                     u1975 07B1                     _RBIF 0058  
                   u1985 07BC                     _TMR0 0001                     _TXIF 0064  
             i1_parpadeo 0700                     _main 0037                     btemp 007E  
                   start 0010                    ??_map 0045                    ??_isr 0026  
        _colores_mostrar 00B2                    ?_main 0070           i1___awdiv@sign 0021  
        __end_of___awdiv 0648                    _EEADR 010D                    _ANSEL 0188  
        ___awdiv@divisor 0032          __end_of___lwdiv 0791                    i1l211 02BB  
                  i1l213 02CB                    i1l231 033B                    i1l215 02DB  
                  i1l305 074A                    i1l217 02EB                    i1l171 0FCD  
                  i1l219 0303                    i1l228 0334                    i1l421 0F77  
                  i1l229 0383                    i1l237 039A                    i1l174 0FFF  
                  i1l177 0F1E          __end_of___lwmod 07CD                    i1l419 0F5F  
                  i1l572 06B0          ___awdiv@counter 0037                    _RCREG 001A  
                  _SPBRG 0099                    _PORTA 0005                    _PORTB 0006  
                  _PORTC 0007                    _PORTD 0008                    _TRISA 0085  
                  _TRISB 0086                    _TRISC 0087                    _TRISD 0088  
                  _TXREG 0019                    _carac 005D          __end_of_dpowers 041A  
                  _enter 0EF3                    _setup 07CD                    pclath 000A  
       __end_ofi1___wmul 0F78                    status 0003      i1___wmul@multiplier 0070  
                  wtemp0 007E          __end_of_sprintf 05DF          __initialization 0013  
           __end_of_main 0292            ?_readToEEPROM 0070                   ??_main 0047  
                 ?_enter 0070                   _ADRESH 001E                   _ADRESL 009E  
                 _EEDATA 010C                   _CCPR1L 0015                   _CCPR2L 001B  
                 _EECON2 018D         ___awdiv@dividend 0034                   ?_setup 0070  
                 _ANSELH 0189                   i1l2011 0700                   i1l2021 0735  
                 i1l2101 035C                   i1l2023 073D                   i1l2111 0387  
                 i1l2103 0361                   i1l2031 029C                   i1l2017 0706  
                 i1l2113 038C                   i1l2105 0367                   i1l2041 02B9  
                 i1l2033 02A0                   i1l2025 0292                   i1l2019 072C  
                 i1l2107 0369                   i1l2051 02DC                   i1l2043 02BC  
                 i1l2035 02A4                   i1l2027 0296                   i1l2109 037B  
                 i1l2061 030B                   i1l2053 02E9                   i1l2045 02C9  
                 i1l2037 02A8                   i1l2029 0298                   i1l2071 0318  
                 i1l2063 030C                   i1l2055 02EC                   i1l2047 02CC  
                 i1l2039 02AC                   u120_20 0F73                   u120_21 0F72  
                 i1l2073 031D                   i1l2065 0311                   i1l2057 02FF  
                 i1l2049 02D9                   i1l2081 0325                   i1l2091 0338  
                 i1l2083 0329                   i1l2075 031E                   i1l2067 0312  
                 i1l2059 0306                   i1l2093 033D                   i1l2085 032D  
                 i1l2077 0323                   i1l2069 0317                   i1l2095 034B  
                 i1l2087 032E                   i1l2079 0324                   u121_20 064F  
                 i1l1801 0F11                   u121_21 064E                   i1l1721 0F55  
                 i1l2097 0351                   i1l2089 0332                   i1l1803 0F14  
                 i1l1723 0F59                   i1l2099 0356                   i1l1805 0F15  
                 i1l1741 0656                   i1l1733 0648                   i1l1725 0F66  
                 i1l1751 066B                   i1l1743 065A                   i1l1735 064B  
                 i1l1727 0F6D                   i1l1719 0F53                   u130_20 06A7  
                 u122_20 065A                   u130_21 06A6                   i1l1761 068E  
                 i1l1753 066E                   i1l1745 065F                   u122_21 0659  
                 i1l1737 064F                   i1l1729 0F73                   i1l1771 06A7  
                 i1l1763 0694                   i1l1755 0675                   i1l1747 0663  
                 i1l1739 0654                   i1l1781 0FD9                   i1l1773 06AC  
                 i1l1765 0695                   i1l1757 0679                   i1l1749 0665  
                 i1l1791 0FF1                   i1l1783 0FDC                   i1l1767 069C  
                 i1l1759 067D                   u131_20 0FD3                   u123_20 066B  
                 i1l1793 0FF4                   i1l1785 0FDD                   u131_21 0FD2  
                 i1l1777 0FC7                   i1l1769 06A2                   u123_21 066A  
                 i1l1795 0FF5                   i1l1787 0FE2                   i1l1779 0FD3  
                 i1l1797 0FFE                   i1l1789 0FE3                   i1l1799 0F0D  
                 u124_25 066F                   u125_20 067D                   u117_20 0F59  
                 u125_21 067C                   u117_21 0F58                   u142_20 074A  
                 u150_20 0311                   u142_21 0749                   u150_21 0310  
                 u126_25 067E                   u118_25 0F60                   u142_25 0746  
                 u230_27 0FE8                   u127_20 068E                   u151_20 0317  
                 u143_20 0296                   u127_21 068D                   u151_21 0316  
                 u143_21 0295                   u127_25 068A                   u119_25 0F67  
                 u160_20 0383                   u152_20 031D                   u144_20 02B9  
                 u160_21 0382                   u152_21 031C                   u144_21 02B8  
                 u128_25 0696                   u144_25 02B5                   u129_20 06A2  
                 u161_20 0387                   u153_20 0323                   u145_20 02C9  
                 u129_21 06A1                   u161_21 0386                   u153_21 0322  
                 u145_21 02C8                   u145_25 02C5                   u154_20 0329  
                 u146_20 02D9                   u154_21 0328                   u146_21 02D8  
                 u146_25 02D5                   u226_27 0345                   u155_20 0332  
                 u147_20 02E9                   u155_21 0331                   u147_21 02E8  
                 u147_25 02E5                   u227_27 0375                   u156_20 0338  
                 u148_20 02FF                   u156_21 0337                   u148_21 02FE  
                 u148_25 02FB                   u228_27 0394                   u157_20 0351  
                 u149_20 030B                   u157_21 0350                   u149_21 030A  
                 u229_27 0730                   u158_20 035C                   u158_21 035B  
                 u159_20 0367                   u159_21 0366              ?i1_parpadeo 0070  
                 _SPBRGH 009A                   _cadena 0F9F                   ___wmul 0F78  
            i1parpadeo@i 0024                ??___awdiv 0036                ??___lwdiv 0030  
              ??___lwmod 0038           ??_readToEEPROM 0070         ___awdiv@quotient 0039  
       __end_of_parpadeo 0700        __end_ofi1___awdiv 06B1         __end_of_setupADC 0F35  
       __end_of_setupPWM 03FD                   saved_w 007E                ??_sprintf 003D  
__end_of__initialization 0033           __pcstackCOMMON 0070             __pidataBANK1 03FD  
          __end_of_enter 0F00            __end_of_setup 07F6                ?i1___wmul 0070  
         _OPTION_REGbits 0081            ?_saveToEEPROM 0070                  ??_enter 002D  
                ??_setup 002C               __pbssBANK0 0049               __pbssBANK1 00AC  
             __pmaintext 0037                  ?_cadena 002D                  ?___wmul 002C  
             __pintentry 0004               ??i1___wmul 0074       _opcionSeleccionada 005B  
     i1___awdiv@dividend 0078           ??_saveToEEPROM 0070               __stringtab 0400  
                _Bandera 005E     __end_of_readToEEPROM 0F1F                ?_parpadeo 0070  
     i1___awdiv@quotient 0022                ?_setupADC 0070                ?_setupPWM 0070  
                ___awdiv 05DF                  ___lwdiv 074B                  ___lwmod 0791  
                __ptext1 04F5                  __ptext2 0791                  __ptext3 074B  
                __ptext4 0F35                  __ptext5 0EE7                  __ptext6 0F00  
                __ptext7 03DE                  __ptext8 0F1F                  __ptext9 07CD  
                _dpowers 0410                _T2CONbits 0012                  _sprintf 04F5  
                clrloop0 0EE0     end_of_initialization 0033        ??_enviar_caracter 002C  
           ??i1_parpadeo 007B               ??_parpadeo 003B        __end_of_setupTMR0 0F0D  
      __end_of_setupTMR2 0EF3               ??_setupADC 002C                _RCSTAbits 0018  
             ??_setupPWM 002C    i1___wmul@multiplicand 0072               _setup_UART 0F35  
              _PORTBbits 0006                _PORTCbits 0007                _PORTDbits 0008  
     __end_ofi1_parpadeo 074B                _POT_VERDE 0057                _TRISCbits 0087  
             _pwm_count1 0063               _pwm_count2 0062               _pwm_count3 0061  
             _pwm_countP 0060               _pwm_countT 005F                i1___awdiv 0648  
             _pwm_period 00B4               map@out_max 0043               map@out_min 0041  
            _CCP1CONbits 0017              _CCP2CONbits 001D                _TXSTAbits 0098  
   __end_of_saveToEEPROM 1000           __end_of_cadena 0FC7           __end_of___wmul 0F9F  
            _BAUDCTLbits 0187      start_initialization 0013              __end_of_map 03DE  
            __end_of_isr 03A5               ?i1___awdiv 0076        main@valorverdeStr 00A4  
               ??_cadena 002F                 ??___wmul 0030              __pdataBANK1 00B4  
            ?_setup_UART 0070             _readToEEPROM 0F0D              __pbssCOMMON 007D  
              ___latbits 0002            __pcstackBANK0 0020            __pcstackBANK1 00A0  
       saveToEEPROM@data 0072              sprintf@flag 0041              sprintf@prec 0042  
           _menuMostrado 005C         ___lwdiv@dividend 002E                 ?___awdiv 0032  
              cadena@txt 002D                 ?___lwdiv 002C                 ?___lwmod 0034  
      i1___awdiv@divisor 0076        i1___awdiv@counter 0020                __pstrings 0400  
        _enviar_caracter 07F6              ??i1___awdiv 007A         ___lwdiv@quotient 0032  
               ?_sprintf 003A        interrupt_function 0004           ___wmul@product 0030  
               _IOCBbits 0096                clear_ram0 0EDF                 _PIE1bits 008C  
               _PIR1bits 000C     enviar_caracter@tecla 002C                _valor_adc 0049  
              _setupTMR0 0F00                _setupTMR2 0EE7                 _POT_AZUL 0055  
               _POT_ROJO 0059                map@in_max 003F                map@in_min 003D  
             _ADCON0bits 001F              __stringbase 040F               _ADCON1bits 009F  
      ___wmul@multiplier 002C                 i1___wmul 0F53                map@output 0045  
               _WPUBbits 0095             _saveToEEPROM 0FC7         main@valorazulStr 00A8  
             _EECON1bits 018C         main@valorrojoStr 00A0               ?_setupTMR0 0070  
             ?_setupTMR2 0070  __end_of_enviar_caracter 0800                 _adcValue 00AC  
     __end_of__stringtab 0410                parpadeo@i 003D               sprintf@val 0043  
        ___lwdiv@divisor 002C          ___lwdiv@counter 0031                 __ptext10 06B1  
               __ptext11 03A5                 __ptext20 0648                 __ptext12 0F78  
               __ptext21 0FC7                 __ptext13 05DF                 __ptext22 0F0D  
               __ptext14 0EF3                 __ptext15 0F9F                 __ptext16 07F6  
               __ptext17 0292                 __ptext18 0700                 __ptext19 0F53  
               _valASCII 007D              _duty_cycle1 0051              _duty_cycle2 004F  
            _duty_cycle3 004D              _duty_cycleP 004B              _duty_cycleT 00B0  
               _parpadeo 06B1                 _potValue 00AE                 _setupADC 0F1F  
               _setupPWM 03DE                 map@input 003B             ??_setup_UART 002C  
             _INTCONbits 000B                 intlevel1 0000                sprintf@ap 0040  
              sprintf@sp 0045         ___lwmod@dividend 0036       __end_of_setup_UART 0F53  
              stringcode 040A               _OSCCONbits 008F              ??_setupTMR0 002C  
            ??_setupTMR2 002C         ?_enviar_caracter 0070                 sprintf@c 0046  
               sprintf@f 003A          ___lwmod@divisor 0034          ___lwmod@counter 0039  
               stringdir 040A                 stringtab 0400  
